
MusikDing.elf:     file format elf32-avr

Sections:
Idx Name          Size      VMA       LMA       File off  Algn
  0 .text         00002eba  00000000  00000000  000000b4  2**1
                  CONTENTS, ALLOC, LOAD, READONLY, CODE
  1 .data         0000000a  00802000  00002eba  00002f6e  2**0
                  CONTENTS, ALLOC, LOAD, DATA
  2 .bss          000006e4  0080200a  0080200a  00002f78  2**0
                  ALLOC
  3 .eeprom       0000002d  00810000  00810000  00002f78  2**0
                  CONTENTS, ALLOC, LOAD, DATA
  4 .comment      00000030  00000000  00000000  00002fa5  2**0
                  CONTENTS, READONLY
  5 .debug_aranges 00000020  00000000  00000000  00002fd8  2**3
                  CONTENTS, READONLY, DEBUGGING
  6 .debug_info   0000006b  00000000  00000000  00002ff8  2**0
                  CONTENTS, READONLY, DEBUGGING
  7 .debug_abbrev 00000014  00000000  00000000  00003063  2**0
                  CONTENTS, READONLY, DEBUGGING
  8 .debug_line   00000394  00000000  00000000  00003077  2**0
                  CONTENTS, READONLY, DEBUGGING

Disassembly of section .text:

00000000 <__vectors>:
       0:	89 c1       	rjmp	.+786    	; 0x314 <__dtors_end>
       2:	00 00       	nop
       4:	b8 c1       	rjmp	.+880    	; 0x376 <__bad_interrupt>
       6:	00 00       	nop
       8:	b6 c1       	rjmp	.+876    	; 0x376 <__bad_interrupt>
       a:	00 00       	nop
       c:	b4 c1       	rjmp	.+872    	; 0x376 <__bad_interrupt>
       e:	00 00       	nop
      10:	b2 c1       	rjmp	.+868    	; 0x376 <__bad_interrupt>
      12:	00 00       	nop
      14:	b0 c1       	rjmp	.+864    	; 0x376 <__bad_interrupt>
      16:	00 00       	nop
      18:	ae c1       	rjmp	.+860    	; 0x376 <__bad_interrupt>
      1a:	00 00       	nop
      1c:	ac c1       	rjmp	.+856    	; 0x376 <__bad_interrupt>
      1e:	00 00       	nop
      20:	aa c1       	rjmp	.+852    	; 0x376 <__bad_interrupt>
      22:	00 00       	nop
      24:	a8 c1       	rjmp	.+848    	; 0x376 <__bad_interrupt>
      26:	00 00       	nop
      28:	a6 c1       	rjmp	.+844    	; 0x376 <__bad_interrupt>
      2a:	00 00       	nop
      2c:	a4 c1       	rjmp	.+840    	; 0x376 <__bad_interrupt>
      2e:	00 00       	nop
      30:	a2 c1       	rjmp	.+836    	; 0x376 <__bad_interrupt>
      32:	00 00       	nop
      34:	a0 c1       	rjmp	.+832    	; 0x376 <__bad_interrupt>
      36:	00 00       	nop
      38:	4a c5       	rjmp	.+2708   	; 0xace <__vector_14>
      3a:	00 00       	nop
      3c:	9c c1       	rjmp	.+824    	; 0x376 <__bad_interrupt>
      3e:	00 00       	nop
      40:	9a c1       	rjmp	.+820    	; 0x376 <__bad_interrupt>
      42:	00 00       	nop
      44:	98 c1       	rjmp	.+816    	; 0x376 <__bad_interrupt>
      46:	00 00       	nop
      48:	96 c1       	rjmp	.+812    	; 0x376 <__bad_interrupt>
      4a:	00 00       	nop
      4c:	94 c1       	rjmp	.+808    	; 0x376 <__bad_interrupt>
      4e:	00 00       	nop
      50:	0c 94 10 13 	jmp	0x2620	; 0x2620 <__vector_20>
      54:	90 c1       	rjmp	.+800    	; 0x376 <__bad_interrupt>
      56:	00 00       	nop
      58:	8e c1       	rjmp	.+796    	; 0x376 <__bad_interrupt>
      5a:	00 00       	nop
      5c:	8c c1       	rjmp	.+792    	; 0x376 <__bad_interrupt>
      5e:	00 00       	nop
      60:	8a c1       	rjmp	.+788    	; 0x376 <__bad_interrupt>
      62:	00 00       	nop
      64:	88 c1       	rjmp	.+784    	; 0x376 <__bad_interrupt>
      66:	00 00       	nop
      68:	86 c1       	rjmp	.+780    	; 0x376 <__bad_interrupt>
      6a:	00 00       	nop
      6c:	84 c1       	rjmp	.+776    	; 0x376 <__bad_interrupt>
      6e:	00 00       	nop
      70:	82 c1       	rjmp	.+772    	; 0x376 <__bad_interrupt>
      72:	00 00       	nop
      74:	80 c1       	rjmp	.+768    	; 0x376 <__bad_interrupt>
      76:	00 00       	nop
      78:	7e c1       	rjmp	.+764    	; 0x376 <__bad_interrupt>
      7a:	00 00       	nop
      7c:	7c c1       	rjmp	.+760    	; 0x376 <__bad_interrupt>
      7e:	00 00       	nop
      80:	7a c1       	rjmp	.+756    	; 0x376 <__bad_interrupt>
      82:	00 00       	nop
      84:	78 c1       	rjmp	.+752    	; 0x376 <__bad_interrupt>
      86:	00 00       	nop
      88:	76 c1       	rjmp	.+748    	; 0x376 <__bad_interrupt>
      8a:	00 00       	nop
      8c:	74 c1       	rjmp	.+744    	; 0x376 <__bad_interrupt>
      8e:	00 00       	nop
      90:	72 c1       	rjmp	.+740    	; 0x376 <__bad_interrupt>
      92:	00 00       	nop
      94:	70 c1       	rjmp	.+736    	; 0x376 <__bad_interrupt>
      96:	00 00       	nop
      98:	6e c1       	rjmp	.+732    	; 0x376 <__bad_interrupt>
      9a:	00 00       	nop
      9c:	6c c1       	rjmp	.+728    	; 0x376 <__bad_interrupt>
      9e:	00 00       	nop
      a0:	6a c1       	rjmp	.+724    	; 0x376 <__bad_interrupt>
      a2:	00 00       	nop
      a4:	68 c1       	rjmp	.+720    	; 0x376 <__bad_interrupt>
      a6:	00 00       	nop
      a8:	66 c1       	rjmp	.+716    	; 0x376 <__bad_interrupt>
      aa:	00 00       	nop
      ac:	64 c1       	rjmp	.+712    	; 0x376 <__bad_interrupt>
      ae:	00 00       	nop
      b0:	62 c1       	rjmp	.+708    	; 0x376 <__bad_interrupt>
      b2:	00 00       	nop
      b4:	60 c1       	rjmp	.+704    	; 0x376 <__bad_interrupt>
      b6:	00 00       	nop
      b8:	5e c1       	rjmp	.+700    	; 0x376 <__bad_interrupt>
      ba:	00 00       	nop
      bc:	5c c1       	rjmp	.+696    	; 0x376 <__bad_interrupt>
      be:	00 00       	nop
      c0:	5a c1       	rjmp	.+692    	; 0x376 <__bad_interrupt>
      c2:	00 00       	nop
      c4:	58 c1       	rjmp	.+688    	; 0x376 <__bad_interrupt>
      c6:	00 00       	nop
      c8:	56 c1       	rjmp	.+684    	; 0x376 <__bad_interrupt>
      ca:	00 00       	nop
      cc:	54 c1       	rjmp	.+680    	; 0x376 <__bad_interrupt>
      ce:	00 00       	nop
      d0:	52 c1       	rjmp	.+676    	; 0x376 <__bad_interrupt>
      d2:	00 00       	nop
      d4:	50 c1       	rjmp	.+672    	; 0x376 <__bad_interrupt>
      d6:	00 00       	nop
      d8:	4e c1       	rjmp	.+668    	; 0x376 <__bad_interrupt>
      da:	00 00       	nop
      dc:	4c c1       	rjmp	.+664    	; 0x376 <__bad_interrupt>
      de:	00 00       	nop
      e0:	4a c1       	rjmp	.+660    	; 0x376 <__bad_interrupt>
      e2:	00 00       	nop
      e4:	48 c1       	rjmp	.+656    	; 0x376 <__bad_interrupt>
      e6:	00 00       	nop
      e8:	46 c1       	rjmp	.+652    	; 0x376 <__bad_interrupt>
      ea:	00 00       	nop
      ec:	44 c1       	rjmp	.+648    	; 0x376 <__bad_interrupt>
      ee:	00 00       	nop
      f0:	42 c1       	rjmp	.+644    	; 0x376 <__bad_interrupt>
      f2:	00 00       	nop
      f4:	40 c1       	rjmp	.+640    	; 0x376 <__bad_interrupt>
      f6:	00 00       	nop
      f8:	3e c1       	rjmp	.+636    	; 0x376 <__bad_interrupt>
      fa:	00 00       	nop
      fc:	3c c1       	rjmp	.+632    	; 0x376 <__bad_interrupt>
      fe:	00 00       	nop
     100:	3a c1       	rjmp	.+628    	; 0x376 <__bad_interrupt>
     102:	00 00       	nop
     104:	38 c1       	rjmp	.+624    	; 0x376 <__bad_interrupt>
     106:	00 00       	nop
     108:	0c 94 6c 13 	jmp	0x26d8	; 0x26d8 <__vector_66>
     10c:	34 c1       	rjmp	.+616    	; 0x376 <__bad_interrupt>
     10e:	00 00       	nop
     110:	32 c1       	rjmp	.+612    	; 0x376 <__bad_interrupt>
     112:	00 00       	nop
     114:	30 c1       	rjmp	.+608    	; 0x376 <__bad_interrupt>
     116:	00 00       	nop
     118:	2e c1       	rjmp	.+604    	; 0x376 <__bad_interrupt>
     11a:	00 00       	nop
     11c:	2c c1       	rjmp	.+600    	; 0x376 <__bad_interrupt>
     11e:	00 00       	nop
     120:	2a c1       	rjmp	.+596    	; 0x376 <__bad_interrupt>
     122:	00 00       	nop
     124:	28 c1       	rjmp	.+592    	; 0x376 <__bad_interrupt>
     126:	00 00       	nop
     128:	26 c1       	rjmp	.+588    	; 0x376 <__bad_interrupt>
     12a:	00 00       	nop
     12c:	24 c1       	rjmp	.+584    	; 0x376 <__bad_interrupt>
     12e:	00 00       	nop
     130:	22 c1       	rjmp	.+580    	; 0x376 <__bad_interrupt>
     132:	00 00       	nop
     134:	20 c1       	rjmp	.+576    	; 0x376 <__bad_interrupt>
     136:	00 00       	nop
     138:	1e c1       	rjmp	.+572    	; 0x376 <__bad_interrupt>
     13a:	00 00       	nop
     13c:	1c c1       	rjmp	.+568    	; 0x376 <__bad_interrupt>
     13e:	00 00       	nop
     140:	1a c1       	rjmp	.+564    	; 0x376 <__bad_interrupt>
     142:	00 00       	nop
     144:	18 c1       	rjmp	.+560    	; 0x376 <__bad_interrupt>
     146:	00 00       	nop
     148:	16 c1       	rjmp	.+556    	; 0x376 <__bad_interrupt>
     14a:	00 00       	nop
     14c:	14 c1       	rjmp	.+552    	; 0x376 <__bad_interrupt>
     14e:	00 00       	nop
     150:	12 c1       	rjmp	.+548    	; 0x376 <__bad_interrupt>
     152:	00 00       	nop
     154:	10 c1       	rjmp	.+544    	; 0x376 <__bad_interrupt>
     156:	00 00       	nop
     158:	0e c1       	rjmp	.+540    	; 0x376 <__bad_interrupt>
     15a:	00 00       	nop
     15c:	0c c1       	rjmp	.+536    	; 0x376 <__bad_interrupt>
     15e:	00 00       	nop
     160:	0a c1       	rjmp	.+532    	; 0x376 <__bad_interrupt>
     162:	00 00       	nop
     164:	08 c1       	rjmp	.+528    	; 0x376 <__bad_interrupt>
     166:	00 00       	nop
     168:	06 c1       	rjmp	.+524    	; 0x376 <__bad_interrupt>
     16a:	00 00       	nop
     16c:	04 c1       	rjmp	.+520    	; 0x376 <__bad_interrupt>
     16e:	00 00       	nop
     170:	02 c1       	rjmp	.+516    	; 0x376 <__bad_interrupt>
     172:	00 00       	nop
     174:	00 c1       	rjmp	.+512    	; 0x376 <__bad_interrupt>
     176:	00 00       	nop
     178:	fe c0       	rjmp	.+508    	; 0x376 <__bad_interrupt>
     17a:	00 00       	nop
     17c:	fc c0       	rjmp	.+504    	; 0x376 <__bad_interrupt>
     17e:	00 00       	nop
     180:	fa c0       	rjmp	.+500    	; 0x376 <__bad_interrupt>
     182:	00 00       	nop
     184:	f8 c0       	rjmp	.+496    	; 0x376 <__bad_interrupt>
     186:	00 00       	nop
     188:	f6 c0       	rjmp	.+492    	; 0x376 <__bad_interrupt>
     18a:	00 00       	nop
     18c:	f4 c0       	rjmp	.+488    	; 0x376 <__bad_interrupt>
     18e:	00 00       	nop
     190:	f2 c0       	rjmp	.+484    	; 0x376 <__bad_interrupt>
     192:	00 00       	nop
     194:	f0 c0       	rjmp	.+480    	; 0x376 <__bad_interrupt>
     196:	00 00       	nop
     198:	ee c0       	rjmp	.+476    	; 0x376 <__bad_interrupt>
     19a:	00 00       	nop
     19c:	ec c0       	rjmp	.+472    	; 0x376 <__bad_interrupt>
     19e:	00 00       	nop
     1a0:	ea c0       	rjmp	.+468    	; 0x376 <__bad_interrupt>
     1a2:	00 00       	nop
     1a4:	e8 c0       	rjmp	.+464    	; 0x376 <__bad_interrupt>
     1a6:	00 00       	nop
     1a8:	e6 c0       	rjmp	.+460    	; 0x376 <__bad_interrupt>
     1aa:	00 00       	nop
     1ac:	e4 c0       	rjmp	.+456    	; 0x376 <__bad_interrupt>
     1ae:	00 00       	nop
     1b0:	e2 c0       	rjmp	.+452    	; 0x376 <__bad_interrupt>
     1b2:	00 00       	nop
     1b4:	e0 c0       	rjmp	.+448    	; 0x376 <__bad_interrupt>
     1b6:	00 00       	nop
     1b8:	de c0       	rjmp	.+444    	; 0x376 <__bad_interrupt>
     1ba:	00 00       	nop
     1bc:	dc c0       	rjmp	.+440    	; 0x376 <__bad_interrupt>
     1be:	00 00       	nop
     1c0:	da c0       	rjmp	.+436    	; 0x376 <__bad_interrupt>
     1c2:	00 00       	nop
     1c4:	d8 c0       	rjmp	.+432    	; 0x376 <__bad_interrupt>
     1c6:	00 00       	nop
     1c8:	d6 c0       	rjmp	.+428    	; 0x376 <__bad_interrupt>
     1ca:	00 00       	nop
     1cc:	d4 c0       	rjmp	.+424    	; 0x376 <__bad_interrupt>
     1ce:	00 00       	nop
     1d0:	d2 c0       	rjmp	.+420    	; 0x376 <__bad_interrupt>
     1d2:	00 00       	nop
     1d4:	d0 c0       	rjmp	.+416    	; 0x376 <__bad_interrupt>
     1d6:	00 00       	nop
     1d8:	ce c0       	rjmp	.+412    	; 0x376 <__bad_interrupt>
     1da:	00 00       	nop
     1dc:	cc c0       	rjmp	.+408    	; 0x376 <__bad_interrupt>
     1de:	00 00       	nop
     1e0:	ca c0       	rjmp	.+404    	; 0x376 <__bad_interrupt>
     1e2:	00 00       	nop
     1e4:	c8 c0       	rjmp	.+400    	; 0x376 <__bad_interrupt>
     1e6:	00 00       	nop
     1e8:	c6 c0       	rjmp	.+396    	; 0x376 <__bad_interrupt>
     1ea:	00 00       	nop
     1ec:	c4 c0       	rjmp	.+392    	; 0x376 <__bad_interrupt>
     1ee:	00 00       	nop
     1f0:	c2 c0       	rjmp	.+388    	; 0x376 <__bad_interrupt>
     1f2:	00 00       	nop
     1f4:	c0 c0       	rjmp	.+384    	; 0x376 <__bad_interrupt>
     1f6:	00 00       	nop
     1f8:	be c0       	rjmp	.+380    	; 0x376 <__bad_interrupt>
     1fa:	00 00       	nop
     1fc:	32 07       	cpc	r19, r18
     1fe:	32 07       	cpc	r19, r18
     200:	32 07       	cpc	r19, r18
     202:	32 07       	cpc	r19, r18
     204:	32 07       	cpc	r19, r18
     206:	3a 07       	cpc	r19, r26
     208:	3a 07       	cpc	r19, r26
     20a:	3a 07       	cpc	r19, r26
     20c:	3a 07       	cpc	r19, r26
     20e:	3a 07       	cpc	r19, r26

00000210 <__trampolines_end>:
     210:	bc a2       	std	Y+36, r11	; 0x24
     212:	3c 3f       	cpi	r19, 0xFC	; 252
     214:	90 c4       	rjmp	.+2336   	; 0xb36 <_Z9anim_initv+0x54>
     216:	8d 3f       	cpi	r24, 0xFD	; 253
     218:	09 87       	std	Y+9, r16	; 0x09
     21a:	d0 3f       	cpi	r29, 0xF0	; 240
     21c:	10 54       	subi	r17, 0x40	; 64
     21e:	ef 3f       	cpi	r30, 0xFF	; 255
     220:	00 00       	nop
     222:	00 40       	sbci	r16, 0x00	; 0
     224:	69 04       	cpc	r6, r9
     226:	21 40       	sbci	r18, 0x01	; 1
     228:	ec 25       	eor	r30, r12
     22a:	41 40       	sbci	r20, 0x01	; 1
     22c:	33 71       	andi	r19, 0x13	; 19
     22e:	60 40       	sbci	r22, 0x00	; 0
     230:	e1 ec       	ldi	r30, 0xC1	; 193
     232:	7e 40       	sbci	r23, 0x0E	; 14
     234:	03 4d       	sbci	r16, 0xD3	; 211
     236:	8e 40       	sbci	r24, 0x0E	; 14
     238:	02 bb       	out	0x12, r16	; 18
     23a:	9c 40       	sbci	r25, 0x0C	; 12
     23c:	12 be       	out	0x32, r1	; 50
     23e:	aa 40       	sbci	r26, 0x0A	; 10
     240:	57 53       	subi	r21, 0x37	; 55
     242:	b8 40       	sbci	r27, 0x08	; 8
     244:	d9 77       	andi	r29, 0x79	; 121
     246:	c5 40       	sbci	r28, 0x05	; 5
     248:	be 28       	or	r11, r14
     24a:	d2 40       	sbci	r29, 0x02	; 2
     24c:	75 63       	ori	r23, 0x35	; 53
     24e:	de 40       	sbci	r29, 0x0E	; 14
     250:	d2 25       	eor	r29, r2
     252:	ea 40       	sbci	r30, 0x0A	; 10
     254:	1a 6e       	ori	r17, 0xEA	; 234
     256:	f5 40       	sbci	r31, 0x05	; 5
     258:	87 1d       	adc	r24, r7
     25a:	00 41       	sbci	r16, 0x10	; 16
     25c:	f6 45       	sbci	r31, 0x56	; 86
     25e:	05 41       	sbci	r16, 0x15	; 21
     260:	3a 30       	cpi	r19, 0x0A	; 10
     262:	0a 41       	sbci	r16, 0x1A	; 26
     264:	6f dc       	rcall	.-1826   	; 0xfffffb44 <__eeprom_end+0xff7efb17>
     266:	0e 41       	sbci	r16, 0x1E	; 30
     268:	ea 4a       	sbci	r30, 0xAA	; 170
     26a:	13 41       	sbci	r17, 0x13	; 19
     26c:	39 7c       	andi	r19, 0xC9	; 201
     26e:	17 41       	sbci	r17, 0x17	; 23
     270:	1b 71       	andi	r17, 0x1B	; 27
     272:	1b 41       	sbci	r17, 0x1B	; 27
     274:	80 2a       	or	r8, r16
     276:	1f 41       	sbci	r17, 0x1F	; 31
     278:	7e a9       	ldd	r23, Y+54	; 0x36
     27a:	22 41       	sbci	r18, 0x12	; 18
     27c:	53 ef       	ldi	r21, 0xF3	; 243
     27e:	25 41       	sbci	r18, 0x15	; 21
     280:	5b fd       	.word	0xfd5b	; ????
     282:	28 41       	sbci	r18, 0x18	; 24
     284:	11 d5       	rcall	.+2594   	; 0xca8 <_Z10anim_framev+0x7e>
     286:	2b 41       	sbci	r18, 0x1B	; 27
     288:	04 78       	andi	r16, 0x84	; 132
     28a:	2e 41       	sbci	r18, 0x1E	; 30
     28c:	d8 e7       	ldi	r29, 0x78	; 120
     28e:	30 41       	sbci	r19, 0x10	; 16
     290:	40 26       	eor	r4, r16
     292:	33 41       	sbci	r19, 0x13	; 19
     294:	fa 34       	cpi	r31, 0x4A	; 74
     296:	35 41       	sbci	r19, 0x15	; 21
     298:	cd 15       	cp	r28, r13
     29a:	37 41       	sbci	r19, 0x17	; 23
     29c:	82 ca       	rjmp	.-2812   	; 0xfffff7a2 <__eeprom_end+0xff7ef775>
     29e:	38 41       	sbci	r19, 0x18	; 24
     2a0:	e8 54       	subi	r30, 0x48	; 72
     2a2:	3a 41       	sbci	r19, 0x1A	; 26
     2a4:	ca b6       	in	r12, 0x3a	; 58
     2a6:	3b 41       	sbci	r19, 0x1B	; 27
     2a8:	f3 f1       	brvs	.+124    	; 0x326 <__do_copy_data+0x2>
     2aa:	3c 41       	sbci	r19, 0x1C	; 28
     2ac:	26 08       	sbc	r2, r6
     2ae:	3e 41       	sbci	r19, 0x1E	; 30
     2b0:	23 fb       	bst	r18, 3
     2b2:	3e 41       	sbci	r19, 0x1E	; 30
     2b4:	9f cc       	rjmp	.-1730   	; 0xfffffbf4 <__eeprom_end+0xff7efbc7>
     2b6:	3f 41       	sbci	r19, 0x1F	; 31
     2b8:	47 7e       	andi	r20, 0xE7	; 231
     2ba:	40 41       	sbci	r20, 0x10	; 16
     2bc:	bc 11       	cpse	r27, r12
     2be:	41 41       	sbci	r20, 0x11	; 17
     2c0:	95 88       	ldd	r9, Z+21	; 0x15
     2c2:	41 41       	sbci	r20, 0x11	; 17
     2c4:	5c e4       	ldi	r21, 0x4C	; 76
     2c6:	41 41       	sbci	r20, 0x11	; 17
     2c8:	8f 26       	eor	r8, r31
     2ca:	42 41       	sbci	r20, 0x12	; 18
     2cc:	9f 50       	subi	r25, 0x0F	; 15
     2ce:	42 41       	sbci	r20, 0x12	; 18
     2d0:	ef 63       	ori	r30, 0x3F	; 63
     2d2:	42 41       	sbci	r20, 0x12	; 18
     2d4:	d4 61       	ori	r29, 0x14	; 20
     2d6:	42 41       	sbci	r20, 0x12	; 18
     2d8:	98 4b       	sbci	r25, 0xB8	; 184
     2da:	42 41       	sbci	r20, 0x12	; 18
     2dc:	73 22       	and	r7, r19
     2de:	42 41       	sbci	r20, 0x12	; 18
     2e0:	93 e7       	ldi	r25, 0x73	; 115
     2e2:	41 41       	sbci	r20, 0x11	; 17
     2e4:	19 9c       	mul	r1, r9
     2e6:	41 41       	sbci	r20, 0x11	; 17
     2e8:	16 41       	sbci	r17, 0x16	; 22
     2ea:	41 41       	sbci	r20, 0x11	; 17
     2ec:	91 d7       	rcall	.+3874   	; 0x1210 <_Z14anim_inputDataP12fft_result_tS0_+0x38c>
     2ee:	40 41       	sbci	r20, 0x10	; 16
     2f0:	83 60       	ori	r24, 0x03	; 3
     2f2:	40 41       	sbci	r20, 0x10	; 16
     2f4:	d8 dc       	rcall	.-1616   	; 0xfffffca6 <__eeprom_end+0xff7efc79>
     2f6:	3f 41       	sbci	r19, 0x1F	; 31
     2f8:	74 4d       	sbci	r23, 0xD4	; 212
     2fa:	3f 41       	sbci	r19, 0x1F	; 31
     2fc:	2a b3       	in	r18, 0x1a	; 26
     2fe:	3e 41       	sbci	r19, 0x1E	; 30
     300:	c7 0e       	add	r12, r23
     302:	3e 41       	sbci	r19, 0x1E	; 30
     304:	0a 61       	ori	r16, 0x1A	; 26
     306:	3d 41       	sbci	r19, 0x1D	; 29
     308:	a9 aa       	std	Y+49, r10	; 0x31
     30a:	3c 41       	sbci	r19, 0x1C	; 28
     30c:	51 ec       	ldi	r21, 0xC1	; 193
     30e:	3b 41       	sbci	r19, 0x1B	; 27

00000310 <__ctors_start>:
     310:	bf 13       	cpse	r27, r31

00000312 <__ctors_end>:
     312:	c2 13       	cpse	r28, r18

00000314 <__dtors_end>:
     314:	11 24       	eor	r1, r1
     316:	1f be       	out	0x3f, r1	; 63
     318:	cf ef       	ldi	r28, 0xFF	; 255
     31a:	cd bf       	out	0x3d, r28	; 61
     31c:	df e3       	ldi	r29, 0x3F	; 63
     31e:	de bf       	out	0x3e, r29	; 62
     320:	00 e0       	ldi	r16, 0x00	; 0
     322:	0c bf       	out	0x3c, r16	; 60

00000324 <__do_copy_data>:
     324:	10 e2       	ldi	r17, 0x20	; 32
     326:	a0 e0       	ldi	r26, 0x00	; 0
     328:	b0 e2       	ldi	r27, 0x20	; 32
     32a:	ea eb       	ldi	r30, 0xBA	; 186
     32c:	fe e2       	ldi	r31, 0x2E	; 46
     32e:	00 e0       	ldi	r16, 0x00	; 0
     330:	0b bf       	out	0x3b, r16	; 59
     332:	02 c0       	rjmp	.+4      	; 0x338 <__do_copy_data+0x14>
     334:	07 90       	elpm	r0, Z+
     336:	0d 92       	st	X+, r0
     338:	aa 30       	cpi	r26, 0x0A	; 10
     33a:	b1 07       	cpc	r27, r17
     33c:	d9 f7       	brne	.-10     	; 0x334 <__do_copy_data+0x10>

0000033e <__do_clear_bss>:
     33e:	26 e2       	ldi	r18, 0x26	; 38
     340:	aa e0       	ldi	r26, 0x0A	; 10
     342:	b0 e2       	ldi	r27, 0x20	; 32
     344:	01 c0       	rjmp	.+2      	; 0x348 <.do_clear_bss_start>

00000346 <.do_clear_bss_loop>:
     346:	1d 92       	st	X+, r1

00000348 <.do_clear_bss_start>:
     348:	ae 3e       	cpi	r26, 0xEE	; 238
     34a:	b2 07       	cpc	r27, r18
     34c:	e1 f7       	brne	.-8      	; 0x346 <.do_clear_bss_loop>

0000034e <__do_global_ctors>:
     34e:	13 e0       	ldi	r17, 0x03	; 3
     350:	c2 e1       	ldi	r28, 0x12	; 18
     352:	d3 e0       	ldi	r29, 0x03	; 3
     354:	00 e0       	ldi	r16, 0x00	; 0
     356:	06 c0       	rjmp	.+12     	; 0x364 <__do_global_ctors+0x16>
     358:	22 97       	sbiw	r28, 0x02	; 2
     35a:	01 09       	sbc	r16, r1
     35c:	fe 01       	movw	r30, r28
     35e:	0b bf       	out	0x3b, r16	; 59
     360:	0e 94 9d 16 	call	0x2d3a	; 0x2d3a <__tablejump_elpm__>
     364:	c0 31       	cpi	r28, 0x10	; 16
     366:	d1 07       	cpc	r29, r17
     368:	80 e0       	ldi	r24, 0x00	; 0
     36a:	08 07       	cpc	r16, r24
     36c:	a9 f7       	brne	.-22     	; 0x358 <__do_global_ctors+0xa>
     36e:	0e 94 30 12 	call	0x2460	; 0x2460 <main>
     372:	0c 94 4c 17 	jmp	0x2e98	; 0x2e98 <__do_global_dtors>

00000376 <__bad_interrupt>:
     376:	44 ce       	rjmp	.-888    	; 0x0 <__vectors>

00000378 <tbl_window>:
     378:	3d 0a       	sbc	r3, r29
     37a:	4f 0a       	sbc	r4, r31
     37c:	85 0a       	sbc	r8, r21
     37e:	e0 0a       	sbc	r14, r16
     380:	5e 0b       	sbc	r21, r30
     382:	01 0c       	add	r0, r1
     384:	c6 0c       	add	r12, r6
     386:	ae 0d       	add	r26, r14
     388:	b8 0e       	add	r11, r24
     38a:	e4 0f       	add	r30, r20
     38c:	31 11       	cpse	r19, r1
     38e:	9d 12       	cpse	r9, r29
     390:	29 14       	cp	r2, r9
     392:	d3 15       	cp	r29, r3
     394:	9a 17       	cp	r25, r26
     396:	7d 19       	sub	r23, r13
     398:	7c 1b       	sub	r23, r28
     39a:	93 1d       	adc	r25, r3
     39c:	c4 1f       	adc	r28, r20
     39e:	0b 22       	and	r0, r27
     3a0:	68 24       	eor	r6, r8
     3a2:	d9 26       	eor	r13, r25
     3a4:	5c 29       	or	r21, r12
     3a6:	f1 2b       	or	r31, r17
     3a8:	96 2e       	mov	r9, r22
     3aa:	48 31       	cpi	r20, 0x18	; 24
     3ac:	06 34       	cpi	r16, 0x46	; 70
     3ae:	cf 36       	cpi	r28, 0x6F	; 111
     3b0:	a1 39       	cpi	r26, 0x91	; 145
     3b2:	7a 3c       	cpi	r23, 0xCA	; 202
     3b4:	58 3f       	cpi	r21, 0xF8	; 248
     3b6:	3a 42       	sbci	r19, 0x2A	; 42
     3b8:	1e 45       	sbci	r17, 0x5E	; 94
     3ba:	01 48       	sbci	r16, 0x81	; 129
     3bc:	e3 4a       	sbci	r30, 0xA3	; 163
     3be:	c1 4d       	sbci	r28, 0xD1	; 209
     3c0:	9a 50       	subi	r25, 0x0A	; 10
     3c2:	6c 53       	subi	r22, 0x3C	; 60
     3c4:	35 56       	subi	r19, 0x65	; 101
     3c6:	f4 58       	subi	r31, 0x84	; 132
     3c8:	a6 5b       	subi	r26, 0xB6	; 182
     3ca:	4a 5e       	subi	r20, 0xEA	; 234
     3cc:	df 60       	ori	r29, 0x0F	; 15
     3ce:	63 63       	ori	r22, 0x33	; 51
     3d0:	d4 65       	ori	r29, 0x54	; 84
     3d2:	31 68       	ori	r19, 0x81	; 129
     3d4:	78 6a       	ori	r23, 0xA8	; 168
     3d6:	a8 6c       	ori	r26, 0xC8	; 200
     3d8:	c0 6e       	ori	r28, 0xE0	; 224
     3da:	be 70       	andi	r27, 0x0E	; 14
     3dc:	a1 72       	andi	r26, 0x21	; 33
     3de:	68 74       	andi	r22, 0x48	; 72
     3e0:	12 76       	andi	r17, 0x62	; 98
     3e2:	9e 77       	andi	r25, 0x7E	; 126
     3e4:	0b 79       	andi	r16, 0x9B	; 155
     3e6:	57 7a       	andi	r21, 0xA7	; 167
     3e8:	83 7b       	andi	r24, 0xB3	; 179
     3ea:	8d 7c       	andi	r24, 0xCD	; 205
     3ec:	75 7d       	andi	r23, 0xD5	; 213
     3ee:	3b 7e       	andi	r19, 0xEB	; 235
     3f0:	dd 7e       	andi	r29, 0xED	; 237
     3f2:	5b 7f       	andi	r21, 0xFB	; 251
     3f4:	b6 7f       	andi	r27, 0xF6	; 246
     3f6:	ec 7f       	andi	r30, 0xFC	; 252
     3f8:	fe 7f       	andi	r31, 0xFE	; 254
     3fa:	ec 7f       	andi	r30, 0xFC	; 252
     3fc:	b6 7f       	andi	r27, 0xF6	; 246
     3fe:	5b 7f       	andi	r21, 0xFB	; 251
     400:	dd 7e       	andi	r29, 0xED	; 237
     402:	3b 7e       	andi	r19, 0xEB	; 235
     404:	75 7d       	andi	r23, 0xD5	; 213
     406:	8d 7c       	andi	r24, 0xCD	; 205
     408:	83 7b       	andi	r24, 0xB3	; 179
     40a:	57 7a       	andi	r21, 0xA7	; 167
     40c:	0b 79       	andi	r16, 0x9B	; 155
     40e:	9e 77       	andi	r25, 0x7E	; 126
     410:	12 76       	andi	r17, 0x62	; 98
     412:	68 74       	andi	r22, 0x48	; 72
     414:	a1 72       	andi	r26, 0x21	; 33
     416:	be 70       	andi	r27, 0x0E	; 14
     418:	c0 6e       	ori	r28, 0xE0	; 224
     41a:	a8 6c       	ori	r26, 0xC8	; 200
     41c:	78 6a       	ori	r23, 0xA8	; 168
     41e:	31 68       	ori	r19, 0x81	; 129
     420:	d4 65       	ori	r29, 0x54	; 84
     422:	63 63       	ori	r22, 0x33	; 51
     424:	df 60       	ori	r29, 0x0F	; 15
     426:	4a 5e       	subi	r20, 0xEA	; 234
     428:	a6 5b       	subi	r26, 0xB6	; 182
     42a:	f4 58       	subi	r31, 0x84	; 132
     42c:	35 56       	subi	r19, 0x65	; 101
     42e:	6c 53       	subi	r22, 0x3C	; 60
     430:	9a 50       	subi	r25, 0x0A	; 10
     432:	c1 4d       	sbci	r28, 0xD1	; 209
     434:	e3 4a       	sbci	r30, 0xA3	; 163
     436:	01 48       	sbci	r16, 0x81	; 129
     438:	1e 45       	sbci	r17, 0x5E	; 94
     43a:	3a 42       	sbci	r19, 0x2A	; 42
     43c:	58 3f       	cpi	r21, 0xF8	; 248
     43e:	7a 3c       	cpi	r23, 0xCA	; 202
     440:	a1 39       	cpi	r26, 0x91	; 145
     442:	cf 36       	cpi	r28, 0x6F	; 111
     444:	06 34       	cpi	r16, 0x46	; 70
     446:	48 31       	cpi	r20, 0x18	; 24
     448:	96 2e       	mov	r9, r22
     44a:	f1 2b       	or	r31, r17
     44c:	5c 29       	or	r21, r12
     44e:	d9 26       	eor	r13, r25
     450:	68 24       	eor	r6, r8
     452:	0b 22       	and	r0, r27
     454:	c4 1f       	adc	r28, r20
     456:	93 1d       	adc	r25, r3
     458:	7c 1b       	sub	r23, r28
     45a:	7e 19       	sub	r23, r14
     45c:	9a 17       	cp	r25, r26
     45e:	d3 15       	cp	r29, r3
     460:	29 14       	cp	r2, r9
     462:	9d 12       	cpse	r9, r29
     464:	31 11       	cpse	r19, r1
     466:	e4 0f       	add	r30, r20
     468:	b8 0e       	add	r11, r24
     46a:	ae 0d       	add	r26, r14
     46c:	c6 0c       	add	r12, r6
     46e:	01 0c       	add	r0, r1
     470:	5e 0b       	sbc	r21, r30
     472:	e0 0a       	sbc	r14, r16
     474:	85 0a       	sbc	r8, r21
     476:	4f 0a       	sbc	r4, r31

00000478 <tbl_cos_sin>:
     478:	ff 7f       	andi	r31, 0xFF	; 255
     47a:	00 00       	nop
     47c:	d7 7f       	andi	r29, 0xF7	; 247
     47e:	47 06       	cpc	r4, r23
     480:	61 7f       	andi	r22, 0xF1	; 241
     482:	8b 0c       	add	r8, r11
     484:	9c 7e       	andi	r25, 0xEC	; 236
     486:	c7 12       	cpse	r12, r23
     488:	89 7d       	andi	r24, 0xD9	; 217
     48a:	f8 18       	sub	r15, r8
     48c:	29 7c       	andi	r18, 0xC9	; 201
     48e:	19 1f       	adc	r17, r25
     490:	7c 7a       	andi	r23, 0xAC	; 172
     492:	27 25       	eor	r18, r7
     494:	83 78       	andi	r24, 0x83	; 131
     496:	1e 2b       	or	r17, r30
     498:	40 76       	andi	r20, 0x60	; 96
     49a:	fb 30       	cpi	r31, 0x0B	; 11
     49c:	b5 73       	andi	r27, 0x35	; 53
     49e:	b9 36       	cpi	r27, 0x69	; 105
     4a0:	e1 70       	andi	r30, 0x01	; 1
     4a2:	56 3c       	cpi	r21, 0xC6	; 198
     4a4:	c9 6d       	ori	r28, 0xD9	; 217
     4a6:	cd 41       	sbci	r28, 0x1D	; 29
     4a8:	6c 6a       	ori	r22, 0xAC	; 172
     4aa:	1c 47       	sbci	r17, 0x7C	; 124
     4ac:	ce 66       	ori	r28, 0x6E	; 110
     4ae:	3f 4c       	sbci	r19, 0xCF	; 207
     4b0:	f1 62       	ori	r31, 0x21	; 33
     4b2:	33 51       	subi	r19, 0x13	; 19
     4b4:	d6 5e       	subi	r29, 0xE6	; 230
     4b6:	f4 55       	subi	r31, 0x54	; 84
     4b8:	81 5a       	subi	r24, 0xA1	; 161
     4ba:	81 5a       	subi	r24, 0xA1	; 161
     4bc:	f4 55       	subi	r31, 0x54	; 84
     4be:	d6 5e       	subi	r29, 0xE6	; 230
     4c0:	33 51       	subi	r19, 0x13	; 19
     4c2:	f1 62       	ori	r31, 0x21	; 33
     4c4:	3f 4c       	sbci	r19, 0xCF	; 207
     4c6:	ce 66       	ori	r28, 0x6E	; 110
     4c8:	1c 47       	sbci	r17, 0x7C	; 124
     4ca:	6c 6a       	ori	r22, 0xAC	; 172
     4cc:	cd 41       	sbci	r28, 0x1D	; 29
     4ce:	c9 6d       	ori	r28, 0xD9	; 217
     4d0:	56 3c       	cpi	r21, 0xC6	; 198
     4d2:	e1 70       	andi	r30, 0x01	; 1
     4d4:	b9 36       	cpi	r27, 0x69	; 105
     4d6:	b5 73       	andi	r27, 0x35	; 53
     4d8:	fb 30       	cpi	r31, 0x0B	; 11
     4da:	40 76       	andi	r20, 0x60	; 96
     4dc:	1e 2b       	or	r17, r30
     4de:	83 78       	andi	r24, 0x83	; 131
     4e0:	27 25       	eor	r18, r7
     4e2:	7c 7a       	andi	r23, 0xAC	; 172
     4e4:	19 1f       	adc	r17, r25
     4e6:	29 7c       	andi	r18, 0xC9	; 201
     4e8:	f8 18       	sub	r15, r8
     4ea:	89 7d       	andi	r24, 0xD9	; 217
     4ec:	c7 12       	cpse	r12, r23
     4ee:	9c 7e       	andi	r25, 0xEC	; 236
     4f0:	8b 0c       	add	r8, r11
     4f2:	61 7f       	andi	r22, 0xF1	; 241
     4f4:	47 06       	cpc	r4, r23
     4f6:	d7 7f       	andi	r29, 0xF7	; 247
     4f8:	00 00       	nop
     4fa:	fe 7f       	andi	r31, 0xFE	; 254
     4fc:	b9 f9       	.word	0xf9b9	; ????
     4fe:	d7 7f       	andi	r29, 0xF7	; 247
     500:	75 f3       	brhs	.-36     	; 0x4de <tbl_cos_sin+0x66>
     502:	61 7f       	andi	r22, 0xF1	; 241
     504:	39 ed       	ldi	r19, 0xD9	; 217
     506:	9c 7e       	andi	r25, 0xEC	; 236
     508:	08 e7       	ldi	r16, 0x78	; 120
     50a:	89 7d       	andi	r24, 0xD9	; 217
     50c:	e7 e0       	ldi	r30, 0x07	; 7
     50e:	29 7c       	andi	r18, 0xC9	; 201
     510:	d9 da       	rcall	.-2638   	; 0xfffffac4 <__eeprom_end+0xff7efa97>
     512:	7c 7a       	andi	r23, 0xAC	; 172
     514:	e2 d4       	rcall	.+2500   	; 0xeda <_Z14anim_inputDataP12fft_result_tS0_+0x56>
     516:	83 78       	andi	r24, 0x83	; 131
     518:	05 cf       	rjmp	.-502    	; 0x324 <__do_copy_data>
     51a:	40 76       	andi	r20, 0x60	; 96
     51c:	47 c9       	rjmp	.-3442   	; 0xfffff7ac <__eeprom_end+0xff7ef77f>
     51e:	b5 73       	andi	r27, 0x35	; 53
     520:	aa c3       	rjmp	.+1876   	; 0xc76 <_Z10anim_framev+0x4c>
     522:	e1 70       	andi	r30, 0x01	; 1
     524:	33 be       	out	0x33, r3	; 51
     526:	c9 6d       	ori	r28, 0xD9	; 217
     528:	e4 b8       	out	0x04, r14	; 4
     52a:	6c 6a       	ori	r22, 0xAC	; 172
     52c:	c1 b3       	in	r28, 0x11	; 17
     52e:	ce 66       	ori	r28, 0x6E	; 110
     530:	cd ae       	std	Y+61, r12	; 0x3d
     532:	f1 62       	ori	r31, 0x21	; 33
     534:	0c aa       	std	Y+52, r0	; 0x34
     536:	d6 5e       	subi	r29, 0xE6	; 230
     538:	7f a5       	ldd	r23, Y+47	; 0x2f
     53a:	81 5a       	subi	r24, 0xA1	; 161
     53c:	2a a1       	ldd	r18, Y+34	; 0x22
     53e:	f5 55       	subi	r31, 0x55	; 85
     540:	0f 9d       	mul	r16, r15
     542:	33 51       	subi	r19, 0x13	; 19
     544:	32 99       	sbic	0x06, 2	; 6
     546:	3f 4c       	sbci	r19, 0xCF	; 207
     548:	94 95       	.word	0x9594	; ????
     54a:	1c 47       	sbci	r17, 0x7C	; 124
     54c:	37 92       	lat	Z, r3
     54e:	cd 41       	sbci	r28, 0x1D	; 29
     550:	1f 8f       	std	Y+31, r17	; 0x1f
     552:	56 3c       	cpi	r21, 0xC6	; 198
     554:	4c 8c       	ldd	r4, Y+28	; 0x1c
     556:	b9 36       	cpi	r27, 0x69	; 105
     558:	c0 89       	ldd	r28, Z+16	; 0x10
     55a:	fb 30       	cpi	r31, 0x0B	; 11
     55c:	7d 87       	std	Y+13, r23	; 0x0d
     55e:	1e 2b       	or	r17, r30
     560:	84 85       	ldd	r24, Z+12	; 0x0c
     562:	27 25       	eor	r18, r7
     564:	d8 83       	st	Y, r29
     566:	19 1f       	adc	r17, r25
     568:	77 82       	std	Z+7, r7	; 0x07
     56a:	f8 18       	sub	r15, r8
     56c:	64 81       	ldd	r22, Z+4	; 0x04
     56e:	c7 12       	cpse	r12, r23
     570:	9f 80       	ldd	r9, Y+7	; 0x07
     572:	8b 0c       	add	r8, r11
     574:	29 80       	ldd	r2, Y+1	; 0x01
     576:	47 06       	cpc	r4, r23

00000578 <tbl_bitrev>:
     578:	00 00       	nop
     57a:	00 01       	movw	r0, r0
     57c:	80 00       	.word	0x0080	; ????
     57e:	80 01       	movw	r16, r0
     580:	40 00       	.word	0x0040	; ????
     582:	40 01       	movw	r8, r0
     584:	c0 00       	.word	0x00c0	; ????
     586:	c0 01       	movw	r24, r0
     588:	20 00       	.word	0x0020	; ????
     58a:	20 01       	movw	r4, r0
     58c:	a0 00       	.word	0x00a0	; ????
     58e:	a0 01       	movw	r20, r0
     590:	60 00       	.word	0x0060	; ????
     592:	60 01       	movw	r12, r0
     594:	e0 00       	.word	0x00e0	; ????
     596:	e0 01       	movw	r28, r0
     598:	10 00       	.word	0x0010	; ????
     59a:	10 01       	movw	r2, r0
     59c:	90 00       	.word	0x0090	; ????
     59e:	90 01       	movw	r18, r0
     5a0:	50 00       	.word	0x0050	; ????
     5a2:	50 01       	movw	r10, r0
     5a4:	d0 00       	.word	0x00d0	; ????
     5a6:	d0 01       	movw	r26, r0
     5a8:	30 00       	.word	0x0030	; ????
     5aa:	30 01       	movw	r6, r0
     5ac:	b0 00       	.word	0x00b0	; ????
     5ae:	b0 01       	movw	r22, r0
     5b0:	70 00       	.word	0x0070	; ????
     5b2:	70 01       	movw	r14, r0
     5b4:	f0 00       	.word	0x00f0	; ????
     5b6:	f0 01       	movw	r30, r0
     5b8:	08 00       	.word	0x0008	; ????
     5ba:	08 01       	movw	r0, r16
     5bc:	88 00       	.word	0x0088	; ????
     5be:	88 01       	movw	r16, r16
     5c0:	48 00       	.word	0x0048	; ????
     5c2:	48 01       	movw	r8, r16
     5c4:	c8 00       	.word	0x00c8	; ????
     5c6:	c8 01       	movw	r24, r16
     5c8:	28 00       	.word	0x0028	; ????
     5ca:	28 01       	movw	r4, r16
     5cc:	a8 00       	.word	0x00a8	; ????
     5ce:	a8 01       	movw	r20, r16
     5d0:	68 00       	.word	0x0068	; ????
     5d2:	68 01       	movw	r12, r16
     5d4:	e8 00       	.word	0x00e8	; ????
     5d6:	e8 01       	movw	r28, r16
     5d8:	18 00       	.word	0x0018	; ????
     5da:	18 01       	movw	r2, r16
     5dc:	98 00       	.word	0x0098	; ????
     5de:	98 01       	movw	r18, r16
     5e0:	58 00       	.word	0x0058	; ????
     5e2:	58 01       	movw	r10, r16
     5e4:	d8 00       	.word	0x00d8	; ????
     5e6:	d8 01       	movw	r26, r16
     5e8:	38 00       	.word	0x0038	; ????
     5ea:	38 01       	movw	r6, r16
     5ec:	b8 00       	.word	0x00b8	; ????
     5ee:	b8 01       	movw	r22, r16
     5f0:	78 00       	.word	0x0078	; ????
     5f2:	78 01       	movw	r14, r16
     5f4:	f8 00       	.word	0x00f8	; ????
     5f6:	f8 01       	movw	r30, r16

000005f8 <fft_input>:
;----------------------------------------------------------------------------;
#ifndef INPUT_NOUSE
.global fft_input
.func fft_input
fft_input:
	pushw	T2H,T2L
     5f8:	3f 92       	push	r3
     5fa:	2f 92       	push	r2
	pushw	AH,AL
     5fc:	1f 93       	push	r17
     5fe:	0f 93       	push	r16
	pushw	YH,YL
     600:	df 93       	push	r29
     602:	cf 93       	push	r28

	movw	XL, EL				;X = array_src;
     604:	dc 01       	movw	r26, r24
	movw	YL, DL				;Y = array_bfly;
     606:	eb 01       	movw	r28, r22
	clr	EH				;Zero
     608:	99 27       	eor	r25, r25
	ldiw	ZH,ZL, tbl_window		;Z = &tbl_window[0];
     60a:	e8 e7       	ldi	r30, 0x78	; 120
     60c:	f3 e0       	ldi	r31, 0x03	; 3
	ldiw	AH,AL, FFT_N			;A = FFT_N;
     60e:	00 e8       	ldi	r16, 0x80	; 128
     610:	10 e0       	ldi	r17, 0x00	; 0
1:	lpmw	BH,BL, Z+			;B = *Z++; (window)
     612:	25 91       	lpm	r18, Z+
     614:	35 91       	lpm	r19, Z+
	ldw	CH,CL, X+			;C = *X++; (I-axis)
     616:	4d 91       	ld	r20, X+
     618:	5d 91       	ld	r21, X+
	FMULS16	DH,DL,T2H,T2L, BH,BL, CH,CL	;D = B * C;
     61a:	b5 03       	fmuls	r19, r21
     61c:	b0 01       	movw	r22, r0
     61e:	2c 03       	fmul	r18, r20
     620:	10 01       	movw	r2, r0
     622:	69 1f       	adc	r22, r25
     624:	bc 03       	fmulsu	r19, r20
     626:	79 0b       	sbc	r23, r25
     628:	30 0c       	add	r3, r0
     62a:	61 1d       	adc	r22, r1
     62c:	79 1f       	adc	r23, r25
     62e:	da 03       	fmulsu	r21, r18
     630:	79 0b       	sbc	r23, r25
     632:	30 0c       	add	r3, r0
     634:	61 1d       	adc	r22, r1
     636:	79 1f       	adc	r23, r25
	stw	Y+, DH,DL			;*Y++ = D;
     638:	69 93       	st	Y+, r22
     63a:	79 93       	st	Y+, r23
#ifdef INPUT_IQ
	ldw	CH,CL, X+			;C = *X++; (Q-axis)
	FMULS16	DH,DL,T2H,T2L, BH,BL, CH,CL	;D = B * C;
#endif
	stw	Y+, DH,DL			;*Y++ = D;
     63c:	69 93       	st	Y+, r22
     63e:	79 93       	st	Y+, r23
	subiw	AH,AL, 1			;while(--A)
     640:	01 50       	subi	r16, 0x01	; 1
     642:	10 40       	sbci	r17, 0x00	; 0
	brne	1b				;/
     644:	31 f7       	brne	.-52     	; 0x612 <fft_input+0x1a>

	popw	YH,YL
     646:	cf 91       	pop	r28
     648:	df 91       	pop	r29
	popw	AH,AL
     64a:	0f 91       	pop	r16
     64c:	1f 91       	pop	r17
	popw	T2H,T2L
     64e:	2f 90       	pop	r2
     650:	3f 90       	pop	r3
	clr	r1
     652:	11 24       	eor	r1, r1
	ret
     654:	08 95       	ret

00000656 <fft_execute>:

;----------------------------------------------------------------------------;
.global fft_execute
.func fft_execute
fft_execute:
	pushw	T2H,T2L
     656:	3f 92       	push	r3
     658:	2f 92       	push	r2
	pushw	T4H,T4L
     65a:	5f 92       	push	r5
     65c:	4f 92       	push	r4
	pushw	T6H,T6L
     65e:	7f 92       	push	r7
     660:	6f 92       	push	r6
	pushw	T8H,T8L
     662:	9f 92       	push	r9
     664:	8f 92       	push	r8
	pushw	T10H,T10L
     666:	bf 92       	push	r11
     668:	af 92       	push	r10
	pushw	T12H,T12L
     66a:	df 92       	push	r13
     66c:	cf 92       	push	r12
	pushw	T14H,T14L
     66e:	ff 92       	push	r15
     670:	ef 92       	push	r14
	pushw	AH,AL
     672:	1f 93       	push	r17
     674:	0f 93       	push	r16
	pushw	YH,YL
     676:	df 93       	push	r29
     678:	cf 93       	push	r28

	movw	ZL, EL				;Z = array_bfly;
     67a:	fc 01       	movw	r30, r24
	ldiw	EH,EL, 1			;E = 1;
     67c:	81 e0       	ldi	r24, 0x01	; 1
     67e:	90 e0       	ldi	r25, 0x00	; 0
	ldiw	XH,XL, FFT_N/2			;X = FFT_N/2;
     680:	a0 e4       	ldi	r26, 0x40	; 64
     682:	b0 e0       	ldi	r27, 0x00	; 0
1:	ldi	AL, 4				;T12 = E; (angular speed)
     684:	04 e0       	ldi	r16, 0x04	; 4
	mul	EL, AL				;
     686:	80 9f       	mul	r24, r16
	movw	T12L, T0L			;
     688:	60 01       	movw	r12, r0
	mul	EH, AL				;
     68a:	90 9f       	mul	r25, r16
	add	T12H, T0L			;/
     68c:	d0 0c       	add	r13, r0
	movw	T14L, EL			;T14 = E;
     68e:	7c 01       	movw	r14, r24
	pushw	EH,EL
     690:	9f 93       	push	r25
     692:	8f 93       	push	r24
	movw	YL, ZL				;Z = &array_bfly[0];
     694:	ef 01       	movw	r28, r30
	mul	XL, AL				;Y = &array_bfly[X];
     696:	a0 9f       	mul	r26, r16
	addw	YH,YL, T0H,T0L			;
     698:	c0 0d       	add	r28, r0
     69a:	d1 1d       	adc	r29, r1
	mul	XH, AL				;
     69c:	b0 9f       	mul	r27, r16
	add	YH, T0L				;/
     69e:	d0 0d       	add	r29, r0
	pushw	ZH,ZL
     6a0:	ff 93       	push	r31
     6a2:	ef 93       	push	r30
2:	clrw	T10H,T10L			;T10 = 0 (angle)
     6a4:	bb 24       	eor	r11, r11
     6a6:	aa 24       	eor	r10, r10
	clr	EH				;Zero reg.
     6a8:	99 27       	eor	r25, r25
3:	lddw	AH,AL, Z+0			;A = *Z - *Y; *Z++ += *Y;
     6aa:	00 81       	ld	r16, Z
     6ac:	11 81       	ldd	r17, Z+1	; 0x01
	asrw	AH,AL				;
     6ae:	15 95       	asr	r17
     6b0:	07 95       	ror	r16
	lddw	DH,DL, Y+0			;
     6b2:	68 81       	ld	r22, Y
     6b4:	79 81       	ldd	r23, Y+1	; 0x01
	asrw	DH,DL				;
     6b6:	75 95       	asr	r23
     6b8:	67 95       	ror	r22
	movw	CL, AL				;
     6ba:	a8 01       	movw	r20, r16
	subw	AH,AL, DH,DL			;
     6bc:	06 1b       	sub	r16, r22
     6be:	17 0b       	sbc	r17, r23
	addw	CH,CL, DH,DL			;
     6c0:	46 0f       	add	r20, r22
     6c2:	57 1f       	adc	r21, r23
	stw	Z+, CH,CL			;/
     6c4:	41 93       	st	Z+, r20
     6c6:	51 93       	st	Z+, r21
	lddw	BH,BL, Z+0			;B = *Z - *Y; *Z++ += *Y;
     6c8:	20 81       	ld	r18, Z
     6ca:	31 81       	ldd	r19, Z+1	; 0x01
	asrw	BH,BL				;
     6cc:	35 95       	asr	r19
     6ce:	27 95       	ror	r18
	lddw	DH,DL, Y+2			;
     6d0:	6a 81       	ldd	r22, Y+2	; 0x02
     6d2:	7b 81       	ldd	r23, Y+3	; 0x03
	asrw	DH,DL				;
     6d4:	75 95       	asr	r23
     6d6:	67 95       	ror	r22
	movw	CL, BL				;
     6d8:	a9 01       	movw	r20, r18
	subw	BH,BL, DH,DL			;
     6da:	26 1b       	sub	r18, r22
     6dc:	37 0b       	sbc	r19, r23
	addw	CH,CL, DH,DL			;
     6de:	46 0f       	add	r20, r22
     6e0:	57 1f       	adc	r21, r23
	stw	Z+, CH,CL			;/
     6e2:	41 93       	st	Z+, r20
     6e4:	51 93       	st	Z+, r21
	movw	T0L, ZL
     6e6:	0f 01       	movw	r0, r30
	ldiw	ZH,ZL, tbl_cos_sin		;C = cos(T10); D = sin(T10);
     6e8:	e8 e7       	ldi	r30, 0x78	; 120
     6ea:	f4 e0       	ldi	r31, 0x04	; 4
	addw	ZH,ZL, T10H,T10L		;
     6ec:	ea 0d       	add	r30, r10
     6ee:	fb 1d       	adc	r31, r11
	lpmw	CH,CL, Z+			;
     6f0:	45 91       	lpm	r20, Z+
     6f2:	55 91       	lpm	r21, Z+
	lpmw	DH,DL, Z+			;/
     6f4:	65 91       	lpm	r22, Z+
     6f6:	75 91       	lpm	r23, Z+
	movw	ZL, T0L
     6f8:	f0 01       	movw	r30, r0
	FMULS16	T4H,T4L,T2H,T2L, AH,AL, CH,CL	;*Y++ = A * C + B * D;
     6fa:	95 03       	fmuls	r17, r21
     6fc:	20 01       	movw	r4, r0
     6fe:	0c 03       	fmul	r16, r20
     700:	10 01       	movw	r2, r0
     702:	49 1e       	adc	r4, r25
     704:	9c 03       	fmulsu	r17, r20
     706:	59 0a       	sbc	r5, r25
     708:	30 0c       	add	r3, r0
     70a:	41 1c       	adc	r4, r1
     70c:	59 1e       	adc	r5, r25
     70e:	d8 03       	fmulsu	r21, r16
     710:	59 0a       	sbc	r5, r25
     712:	30 0c       	add	r3, r0
     714:	41 1c       	adc	r4, r1
     716:	59 1e       	adc	r5, r25
	FMULS16	T8H,T8L,T6H,T6L, BH,BL, DH,DL	;
     718:	b7 03       	fmuls	r19, r23
     71a:	40 01       	movw	r8, r0
     71c:	2e 03       	fmul	r18, r22
     71e:	30 01       	movw	r6, r0
     720:	89 1e       	adc	r8, r25
     722:	be 03       	fmulsu	r19, r22
     724:	99 0a       	sbc	r9, r25
     726:	70 0c       	add	r7, r0
     728:	81 1c       	adc	r8, r1
     72a:	99 1e       	adc	r9, r25
     72c:	fa 03       	fmulsu	r23, r18
     72e:	99 0a       	sbc	r9, r25
     730:	70 0c       	add	r7, r0
     732:	81 1c       	adc	r8, r1
     734:	99 1e       	adc	r9, r25
	addd	T4H,T4L,T2H,T2L, T8H,T8L,T6H,T6L;
     736:	26 0c       	add	r2, r6
     738:	37 1c       	adc	r3, r7
     73a:	48 1c       	adc	r4, r8
     73c:	59 1c       	adc	r5, r9
	stw	Y+, T4H,T4L			;/
     73e:	49 92       	st	Y+, r4
     740:	59 92       	st	Y+, r5
	FMULS16	T4H,T4L,T2H,T2L, BH,BL, CH,CL 	;*Y++ = B * C - A * D;
     742:	b5 03       	fmuls	r19, r21
     744:	20 01       	movw	r4, r0
     746:	2c 03       	fmul	r18, r20
     748:	10 01       	movw	r2, r0
     74a:	49 1e       	adc	r4, r25
     74c:	bc 03       	fmulsu	r19, r20
     74e:	59 0a       	sbc	r5, r25
     750:	30 0c       	add	r3, r0
     752:	41 1c       	adc	r4, r1
     754:	59 1e       	adc	r5, r25
     756:	da 03       	fmulsu	r21, r18
     758:	59 0a       	sbc	r5, r25
     75a:	30 0c       	add	r3, r0
     75c:	41 1c       	adc	r4, r1
     75e:	59 1e       	adc	r5, r25
	FMULS16	T8H,T8L,T6H,T6L, AH,AL, DH,DL 	;
     760:	97 03       	fmuls	r17, r23
     762:	40 01       	movw	r8, r0
     764:	0e 03       	fmul	r16, r22
     766:	30 01       	movw	r6, r0
     768:	89 1e       	adc	r8, r25
     76a:	9e 03       	fmulsu	r17, r22
     76c:	99 0a       	sbc	r9, r25
     76e:	70 0c       	add	r7, r0
     770:	81 1c       	adc	r8, r1
     772:	99 1e       	adc	r9, r25
     774:	f8 03       	fmulsu	r23, r16
     776:	99 0a       	sbc	r9, r25
     778:	70 0c       	add	r7, r0
     77a:	81 1c       	adc	r8, r1
     77c:	99 1e       	adc	r9, r25
	subd	T4H,T4L,T2H,T2L, T8H,T8L,T6H,T6L;
     77e:	26 18       	sub	r2, r6
     780:	37 08       	sbc	r3, r7
     782:	48 08       	sbc	r4, r8
     784:	59 08       	sbc	r5, r9
	stw	Y+, T4H,T4L			;/
     786:	49 92       	st	Y+, r4
     788:	59 92       	st	Y+, r5
	addw	T10H,T10L, T12H,T12L		;T10 += T12; (next angle)
     78a:	ac 0c       	add	r10, r12
     78c:	bd 1c       	adc	r11, r13
#if FFT_N >= 128
	sbrs	T10H, FFT_B - 7			;while(T10 < pi)
     78e:	b0 fe       	sbrs	r11, 0
#else
	sbrs	T10L, FFT_B + 1
#endif
	rjmp	3b				;/
     790:	8c cf       	rjmp	.-232    	; 0x6aa <fft_execute+0x54>
	ldi	AL, 4				;Y += X; Z += X; (skip split segment)
     792:	04 e0       	ldi	r16, 0x04	; 4
	mul	XL, AL
     794:	a0 9f       	mul	r26, r16
	addw	YH,YL, T0H,T0L			;
     796:	c0 0d       	add	r28, r0
     798:	d1 1d       	adc	r29, r1
	addw	ZH,ZL, T0H,T0L			;
     79a:	e0 0d       	add	r30, r0
     79c:	f1 1d       	adc	r31, r1
	mul	XH, AL				;
     79e:	b0 9f       	mul	r27, r16
	add	YH, T0L				;
     7a0:	d0 0d       	add	r29, r0
	add	ZH, T0L				;/
     7a2:	f0 0d       	add	r31, r0
	ldi	EL, 1				;while(--T14)
     7a4:	81 e0       	ldi	r24, 0x01	; 1
	subw	T14H,T14L, EH,EL		;
     7a6:	e8 1a       	sub	r14, r24
     7a8:	f9 0a       	sbc	r15, r25
	rjne	2b				;/
     7aa:	09 f0       	breq	.+2      	; 0x7ae <fft_execute+0x158>
     7ac:	7b cf       	rjmp	.-266    	; 0x6a4 <fft_execute+0x4e>
	popw	ZH,ZL
     7ae:	ef 91       	pop	r30
     7b0:	ff 91       	pop	r31
	popw	EH,EL
     7b2:	8f 91       	pop	r24
     7b4:	9f 91       	pop	r25
	lslw	EH,EL				;E *= 2;
     7b6:	88 0f       	add	r24, r24
     7b8:	99 1f       	adc	r25, r25
	lsrw	XH,XL				;while(X /= 2)
     7ba:	b6 95       	lsr	r27
     7bc:	a7 95       	ror	r26
	adiw	XL, 0				;
     7be:	10 96       	adiw	r26, 0x00	; 0
	rjne	1b				;/
     7c0:	09 f0       	breq	.+2      	; 0x7c4 <fft_execute+0x16e>
     7c2:	60 cf       	rjmp	.-320    	; 0x684 <fft_execute+0x2e>

	popw	YH,YL
     7c4:	cf 91       	pop	r28
     7c6:	df 91       	pop	r29
	popw	AH,AL
     7c8:	0f 91       	pop	r16
     7ca:	1f 91       	pop	r17
	popw	T14H,T14L
     7cc:	ef 90       	pop	r14
     7ce:	ff 90       	pop	r15
	popw	T12H,T12L
     7d0:	cf 90       	pop	r12
     7d2:	df 90       	pop	r13
	popw	T10H,T10L
     7d4:	af 90       	pop	r10
     7d6:	bf 90       	pop	r11
	popw	T8H,T8L
     7d8:	8f 90       	pop	r8
     7da:	9f 90       	pop	r9
	popw	T6H,T6L
     7dc:	6f 90       	pop	r6
     7de:	7f 90       	pop	r7
	popw	T4H,T4L
     7e0:	4f 90       	pop	r4
     7e2:	5f 90       	pop	r5
	popw	T2H,T2L
     7e4:	2f 90       	pop	r2
     7e6:	3f 90       	pop	r3
;	clr	r1
	ret
     7e8:	08 95       	ret

000007ea <fft_output>:

;----------------------------------------------------------------------------;
.global fft_output
.func fft_output
fft_output:
	pushw	T2H,T2L
     7ea:	3f 92       	push	r3
     7ec:	2f 92       	push	r2
	pushw	T4H,T4L
     7ee:	5f 92       	push	r5
     7f0:	4f 92       	push	r4
	pushw	T6H,T6L
     7f2:	7f 92       	push	r7
     7f4:	6f 92       	push	r6
	pushw	T8H,T8L
     7f6:	9f 92       	push	r9
     7f8:	8f 92       	push	r8
	pushw	T10H,T10L
     7fa:	bf 92       	push	r11
     7fc:	af 92       	push	r10
	pushw	AH,AL
     7fe:	1f 93       	push	r17
     800:	0f 93       	push	r16
	pushw	YH,YL
     802:	df 93       	push	r29
     804:	cf 93       	push	r28

	movw	T10L, EL			;T10 = array_bfly;
     806:	5c 01       	movw	r10, r24
	movw	YL, DL				;Y = array_output;
     808:	eb 01       	movw	r28, r22
	ldiw	ZH,ZL, tbl_bitrev		;Z = tbl_bitrev;
     80a:	e8 e7       	ldi	r30, 0x78	; 120
     80c:	f5 e0       	ldi	r31, 0x05	; 5
	clr	EH				;Zero
     80e:	99 27       	eor	r25, r25
#ifdef INPUT_IQ
	ldiw	AH,AL, FFT_N			;A = FFT_N; (plus/minus)
#else
	ldiw	AH,AL, FFT_N / 2		;A = FFT_N / 2; (plus only)
     810:	00 e4       	ldi	r16, 0x40	; 64
     812:	10 e0       	ldi	r17, 0x00	; 0
#endif
1:	lpmw	XH,XL, Z+			;X = *Z++;
     814:	a5 91       	lpm	r26, Z+
     816:	b5 91       	lpm	r27, Z+
	addw	XH,XL, T10H,T10L		;X += array_bfly;
     818:	aa 0d       	add	r26, r10
     81a:	bb 1d       	adc	r27, r11
	ldw	BH,BL, X+			;B = *X++;
     81c:	2d 91       	ld	r18, X+
     81e:	3d 91       	ld	r19, X+
	ldw	CH,CL, X+			;C = *X++;
     820:	4d 91       	ld	r20, X+
     822:	5d 91       	ld	r21, X+
	FMULS16	T4H,T4L,T2H,T2L, BH,BL, BH,BL	;T4:T2 = B * B;
     824:	b3 03       	fmuls	r19, r19
     826:	20 01       	movw	r4, r0
     828:	2a 03       	fmul	r18, r18
     82a:	10 01       	movw	r2, r0
     82c:	49 1e       	adc	r4, r25
     82e:	ba 03       	fmulsu	r19, r18
     830:	59 0a       	sbc	r5, r25
     832:	30 0c       	add	r3, r0
     834:	41 1c       	adc	r4, r1
     836:	59 1e       	adc	r5, r25
     838:	ba 03       	fmulsu	r19, r18
     83a:	59 0a       	sbc	r5, r25
     83c:	30 0c       	add	r3, r0
     83e:	41 1c       	adc	r4, r1
     840:	59 1e       	adc	r5, r25
	FMULS16	T8H,T8L,T6H,T6L, CH,CL, CH,CL	;T8:T6 = C * C;
     842:	d5 03       	fmuls	r21, r21
     844:	40 01       	movw	r8, r0
     846:	4c 03       	fmul	r20, r20
     848:	30 01       	movw	r6, r0
     84a:	89 1e       	adc	r8, r25
     84c:	dc 03       	fmulsu	r21, r20
     84e:	99 0a       	sbc	r9, r25
     850:	70 0c       	add	r7, r0
     852:	81 1c       	adc	r8, r1
     854:	99 1e       	adc	r9, r25
     856:	dc 03       	fmulsu	r21, r20
     858:	99 0a       	sbc	r9, r25
     85a:	70 0c       	add	r7, r0
     85c:	81 1c       	adc	r8, r1
     85e:	99 1e       	adc	r9, r25
	addd	T4H,T4L,T2H,T2L, T8H,T8L,T6H,T6L;T4:T2 += T8:T6;
     860:	26 0c       	add	r2, r6
     862:	37 1c       	adc	r3, r7
     864:	48 1c       	adc	r4, r8
     866:	59 1c       	adc	r5, r9
	SQRT32					;B = sqrt(T4:T2);
     868:	66 24       	eor	r6, r6
     86a:	77 24       	eor	r7, r7
     86c:	88 24       	eor	r8, r8
     86e:	99 24       	eor	r9, r9
     870:	21 e0       	ldi	r18, 0x01	; 1
     872:	30 e0       	ldi	r19, 0x00	; 0
     874:	44 27       	eor	r20, r20
     876:	55 27       	eor	r21, r21
     878:	70 e1       	ldi	r23, 0x10	; 16
     87a:	22 0c       	add	r2, r2
     87c:	33 1c       	adc	r3, r3
     87e:	44 1c       	adc	r4, r4
     880:	55 1c       	adc	r5, r5
     882:	66 1c       	adc	r6, r6
     884:	77 1c       	adc	r7, r7
     886:	88 1c       	adc	r8, r8
     888:	99 1c       	adc	r9, r9
     88a:	22 0c       	add	r2, r2
     88c:	33 1c       	adc	r3, r3
     88e:	44 1c       	adc	r4, r4
     890:	55 1c       	adc	r5, r5
     892:	66 1c       	adc	r6, r6
     894:	77 1c       	adc	r7, r7
     896:	88 1c       	adc	r8, r8
     898:	99 1c       	adc	r9, r9
     89a:	2a f4       	brpl	.+10     	; 0x8a6 <fft_output+0xbc>
     89c:	62 0e       	add	r6, r18
     89e:	73 1e       	adc	r7, r19
     8a0:	84 1e       	adc	r8, r20
     8a2:	95 1e       	adc	r9, r21
     8a4:	04 c0       	rjmp	.+8      	; 0x8ae <fft_output+0xc4>
     8a6:	62 1a       	sub	r6, r18
     8a8:	73 0a       	sbc	r7, r19
     8aa:	84 0a       	sbc	r8, r20
     8ac:	95 0a       	sbc	r9, r21
     8ae:	22 0f       	add	r18, r18
     8b0:	33 1f       	adc	r19, r19
     8b2:	44 1f       	adc	r20, r20
     8b4:	28 7f       	andi	r18, 0xF8	; 248
     8b6:	25 60       	ori	r18, 0x05	; 5
     8b8:	97 fc       	sbrc	r9, 7
     8ba:	22 50       	subi	r18, 0x02	; 2
     8bc:	7a 95       	dec	r23
     8be:	e9 f6       	brne	.-70     	; 0x87a <fft_output+0x90>
     8c0:	46 95       	lsr	r20
     8c2:	37 95       	ror	r19
     8c4:	27 95       	ror	r18
     8c6:	46 95       	lsr	r20
     8c8:	37 95       	ror	r19
     8ca:	27 95       	ror	r18
	stw	Y+, BH,BL			;*Y++ = B;
     8cc:	29 93       	st	Y+, r18
     8ce:	39 93       	st	Y+, r19
	subiw	AH,AL, 1			;while(--A)
     8d0:	01 50       	subi	r16, 0x01	; 1
     8d2:	10 40       	sbci	r17, 0x00	; 0
	rjne	1b				;/
     8d4:	09 f0       	breq	.+2      	; 0x8d8 <fft_output+0xee>
     8d6:	9e cf       	rjmp	.-196    	; 0x814 <fft_output+0x2a>

	popw	YH,YL
     8d8:	cf 91       	pop	r28
     8da:	df 91       	pop	r29
	popw	AH,AL
     8dc:	0f 91       	pop	r16
     8de:	1f 91       	pop	r17
	popw	T10H,T10L
     8e0:	af 90       	pop	r10
     8e2:	bf 90       	pop	r11
	popw	T8H,T8L
     8e4:	8f 90       	pop	r8
     8e6:	9f 90       	pop	r9
	popw	T6H,T6L
     8e8:	6f 90       	pop	r6
     8ea:	7f 90       	pop	r7
	popw	T4H,T4L
     8ec:	4f 90       	pop	r4
     8ee:	5f 90       	pop	r5
	popw	T2H,T2L
     8f0:	2f 90       	pop	r2
     8f2:	3f 90       	pop	r3
	clr	r1
     8f4:	11 24       	eor	r1, r1
	ret
     8f6:	08 95       	ret

000008f8 <fmuls_f>:

;----------------------------------------------------------------------------;
.global fmuls_f
.func fmuls_f
fmuls_f:
	movw	CL, EL				;C = E;
     8f8:	ac 01       	movw	r20, r24
	clr	EH	;Zero
     8fa:	99 27       	eor	r25, r25
	FMULS16	ZH,ZL,XH,XL, CH,CL, DH,DL	;Z:X = C * D;
     8fc:	d7 03       	fmuls	r21, r23
     8fe:	f0 01       	movw	r30, r0
     900:	4e 03       	fmul	r20, r22
     902:	d0 01       	movw	r26, r0
     904:	e9 1f       	adc	r30, r25
     906:	de 03       	fmulsu	r21, r22
     908:	f9 0b       	sbc	r31, r25
     90a:	b0 0d       	add	r27, r0
     90c:	e1 1d       	adc	r30, r1
     90e:	f9 1f       	adc	r31, r25
     910:	fc 03       	fmulsu	r23, r20
     912:	f9 0b       	sbc	r31, r25
     914:	b0 0d       	add	r27, r0
     916:	e1 1d       	adc	r30, r1
     918:	f9 1f       	adc	r31, r25
	movw	EL, ZL
     91a:	cf 01       	movw	r24, r30
	clr	r1
     91c:	11 24       	eor	r1, r1
	ret
     91e:	08 95       	ret

00000920 <_Z8adc_initv>:
     920:	a0 e4       	ldi	r26, 0x40	; 64
     922:	b2 e0       	ldi	r27, 0x02	; 2
     924:	90 e3       	ldi	r25, 0x30	; 48
     926:	12 96       	adiw	r26, 0x02	; 2
     928:	9c 93       	st	X, r25
     92a:	12 97       	sbiw	r26, 0x02	; 2
     92c:	81 e0       	ldi	r24, 0x01	; 1
     92e:	14 96       	adiw	r26, 0x04	; 4
     930:	8c 93       	st	X, r24
     932:	14 97       	sbiw	r26, 0x04	; 4
     934:	11 96       	adiw	r26, 0x01	; 1
     936:	1c 92       	st	X, r1
     938:	11 97       	sbiw	r26, 0x01	; 1
     93a:	8c 93       	st	X, r24
     93c:	e0 e0       	ldi	r30, 0x00	; 0
     93e:	f2 e0       	ldi	r31, 0x02	; 2
     940:	92 83       	std	Z+2, r25	; 0x02
     942:	84 83       	std	Z+4, r24	; 0x04
     944:	11 82       	std	Z+1, r1	; 0x01
     946:	80 83       	st	Z, r24
     948:	90 96       	adiw	r26, 0x20	; 32
     94a:	8c 93       	st	X, r24
     94c:	90 97       	sbiw	r26, 0x20	; 32
     94e:	98 e0       	ldi	r25, 0x08	; 8
     950:	91 96       	adiw	r26, 0x21	; 33
     952:	9c 93       	st	X, r25
     954:	91 97       	sbiw	r26, 0x21	; 33
     956:	11 96       	adiw	r26, 0x01	; 1
     958:	9c 91       	ld	r25, X
     95a:	11 97       	sbiw	r26, 0x01	; 1
     95c:	98 60       	ori	r25, 0x08	; 8
     95e:	11 96       	adiw	r26, 0x01	; 1
     960:	9c 93       	st	X, r25
     962:	11 97       	sbiw	r26, 0x01	; 1
     964:	90 96       	adiw	r26, 0x20	; 32
     966:	9c 91       	ld	r25, X
     968:	90 97       	sbiw	r26, 0x20	; 32
     96a:	90 68       	ori	r25, 0x80	; 128
     96c:	90 96       	adiw	r26, 0x20	; 32
     96e:	9c 93       	st	X, r25
     970:	80 a3       	std	Z+32, r24	; 0x20
     972:	98 e3       	ldi	r25, 0x38	; 56
     974:	91 a3       	std	Z+33, r25	; 0x21
     976:	91 81       	ldd	r25, Z+1	; 0x01
     978:	98 60       	ori	r25, 0x08	; 8
     97a:	91 83       	std	Z+1, r25	; 0x01
     97c:	90 a1       	ldd	r25, Z+32	; 0x20
     97e:	90 68       	ori	r25, 0x80	; 128
     980:	90 a3       	std	Z+32, r25	; 0x20
     982:	e0 e0       	ldi	r30, 0x00	; 0
     984:	f8 e0       	ldi	r31, 0x08	; 8
     986:	80 83       	st	Z, r24
     988:	82 e0       	ldi	r24, 0x02	; 2
     98a:	86 83       	std	Z+6, r24	; 0x06
     98c:	87 ee       	ldi	r24, 0xE7	; 231
     98e:	93 e0       	ldi	r25, 0x03	; 3
     990:	86 a3       	std	Z+38, r24	; 0x26
     992:	97 a3       	std	Z+39, r25	; 0x27
     994:	08 95       	ret

00000996 <_Z17adc_startSamplingv>:
     996:	80 91 20 01 	lds	r24, 0x0120
     99a:	8f 77       	andi	r24, 0x7F	; 127
     99c:	80 93 20 01 	sts	0x0120, r24
     9a0:	80 91 30 01 	lds	r24, 0x0130
     9a4:	8f 77       	andi	r24, 0x7F	; 127
     9a6:	80 93 30 01 	sts	0x0130, r24
     9aa:	80 91 20 01 	lds	r24, 0x0120
     9ae:	87 fd       	sbrc	r24, 7
     9b0:	fc cf       	rjmp	.-8      	; 0x9aa <_Z17adc_startSamplingv+0x14>
     9b2:	80 91 30 01 	lds	r24, 0x0130
     9b6:	87 fd       	sbrc	r24, 7
     9b8:	fc cf       	rjmp	.-8      	; 0x9b2 <_Z17adc_startSamplingv+0x1c>
     9ba:	80 91 20 01 	lds	r24, 0x0120
     9be:	80 64       	ori	r24, 0x40	; 64
     9c0:	80 93 20 01 	sts	0x0120, r24
     9c4:	80 91 30 01 	lds	r24, 0x0130
     9c8:	80 64       	ori	r24, 0x40	; 64
     9ca:	80 93 30 01 	sts	0x0130, r24
     9ce:	80 91 20 01 	lds	r24, 0x0120
     9d2:	86 fd       	sbrc	r24, 6
     9d4:	fc cf       	rjmp	.-8      	; 0x9ce <_Z17adc_startSamplingv+0x38>
     9d6:	80 91 30 01 	lds	r24, 0x0130
     9da:	86 fd       	sbrc	r24, 6
     9dc:	fc cf       	rjmp	.-8      	; 0x9d6 <_Z17adc_startSamplingv+0x40>
     9de:	e1 e9       	ldi	r30, 0x91	; 145
     9e0:	e0 93 22 01 	sts	0x0122, r30
     9e4:	70 e4       	ldi	r23, 0x40	; 64
     9e6:	70 93 23 01 	sts	0x0123, r23
     9ea:	65 e2       	ldi	r22, 0x25	; 37
     9ec:	60 93 20 01 	sts	0x0120, r22
     9f0:	82 e0       	ldi	r24, 0x02	; 2
     9f2:	90 e0       	ldi	r25, 0x00	; 0
     9f4:	80 93 24 01 	sts	0x0124, r24
     9f8:	90 93 25 01 	sts	0x0125, r25
     9fc:	50 e8       	ldi	r21, 0x80	; 128
     9fe:	50 93 26 01 	sts	0x0126, r21
     a02:	24 e6       	ldi	r18, 0x64	; 100
     a04:	20 93 28 01 	sts	0x0128, r18
     a08:	42 e0       	ldi	r20, 0x02	; 2
     a0a:	40 93 29 01 	sts	0x0129, r20
     a0e:	10 92 2a 01 	sts	0x012A, r1
     a12:	2c e0       	ldi	r18, 0x0C	; 12
     a14:	31 e2       	ldi	r19, 0x21	; 33
     a16:	20 93 2c 01 	sts	0x012C, r18
     a1a:	30 93 2d 01 	sts	0x012D, r19
     a1e:	10 92 2e 01 	sts	0x012E, r1
     a22:	20 91 20 01 	lds	r18, 0x0120
     a26:	20 68       	ori	r18, 0x80	; 128
     a28:	20 93 20 01 	sts	0x0120, r18
     a2c:	e0 93 32 01 	sts	0x0132, r30
     a30:	70 93 33 01 	sts	0x0133, r23
     a34:	60 93 30 01 	sts	0x0130, r22
     a38:	80 93 34 01 	sts	0x0134, r24
     a3c:	90 93 35 01 	sts	0x0135, r25
     a40:	50 93 36 01 	sts	0x0136, r21
     a44:	84 e2       	ldi	r24, 0x24	; 36
     a46:	80 93 38 01 	sts	0x0138, r24
     a4a:	40 93 39 01 	sts	0x0139, r20
     a4e:	10 92 3a 01 	sts	0x013A, r1
     a52:	8c e0       	ldi	r24, 0x0C	; 12
     a54:	90 e2       	ldi	r25, 0x20	; 32
     a56:	80 93 3c 01 	sts	0x013C, r24
     a5a:	90 93 3d 01 	sts	0x013D, r25
     a5e:	10 92 3e 01 	sts	0x013E, r1
     a62:	80 91 30 01 	lds	r24, 0x0130
     a66:	80 68       	ori	r24, 0x80	; 128
     a68:	80 93 30 01 	sts	0x0130, r24
     a6c:	10 92 0b 20 	sts	0x200B, r1
     a70:	10 92 0a 20 	sts	0x200A, r1
     a74:	81 e0       	ldi	r24, 0x01	; 1
     a76:	80 93 de 22 	sts	0x22DE, r24
     a7a:	08 95       	ret

00000a7c <_Z9adc_checkv>:
     a7c:	80 91 21 01 	lds	r24, 0x0121
     a80:	80 7c       	andi	r24, 0xC0	; 192
     a82:	21 f4       	brne	.+8      	; 0xa8c <_Z9adc_checkv+0x10>
     a84:	80 91 03 01 	lds	r24, 0x0103
     a88:	81 fd       	sbrc	r24, 1
     a8a:	1b c0       	rjmp	.+54     	; 0xac2 <_Z9adc_checkv+0x46>
     a8c:	80 91 31 01 	lds	r24, 0x0131
     a90:	80 7c       	andi	r24, 0xC0	; 192
     a92:	21 f4       	brne	.+8      	; 0xa9c <_Z9adc_checkv+0x20>
     a94:	80 91 03 01 	lds	r24, 0x0103
     a98:	82 fd       	sbrc	r24, 2
     a9a:	0d c0       	rjmp	.+26     	; 0xab6 <_Z9adc_checkv+0x3a>
     a9c:	80 91 0b 20 	lds	r24, 0x200B
     aa0:	88 23       	and	r24, r24
     aa2:	39 f0       	breq	.+14     	; 0xab2 <_Z9adc_checkv+0x36>
     aa4:	80 91 0a 20 	lds	r24, 0x200A
     aa8:	88 23       	and	r24, r24
     aaa:	21 f0       	breq	.+8      	; 0xab4 <_Z9adc_checkv+0x38>
     aac:	82 e0       	ldi	r24, 0x02	; 2
     aae:	80 93 de 22 	sts	0x22DE, r24
     ab2:	08 95       	ret
     ab4:	08 95       	ret
     ab6:	80 91 0a 20 	lds	r24, 0x200A
     aba:	8f 5f       	subi	r24, 0xFF	; 255
     abc:	80 93 0a 20 	sts	0x200A, r24
     ac0:	ed cf       	rjmp	.-38     	; 0xa9c <_Z9adc_checkv+0x20>
     ac2:	80 91 0b 20 	lds	r24, 0x200B
     ac6:	8f 5f       	subi	r24, 0xFF	; 255
     ac8:	80 93 0b 20 	sts	0x200B, r24
     acc:	df cf       	rjmp	.-66     	; 0xa8c <_Z9adc_checkv+0x10>

00000ace <__vector_14>:
     ace:	1f 92       	push	r1
     ad0:	0f 92       	push	r0
     ad2:	0f b6       	in	r0, 0x3f	; 63
     ad4:	0f 92       	push	r0
     ad6:	11 24       	eor	r1, r1
     ad8:	0f 90       	pop	r0
     ada:	0f be       	out	0x3f, r0	; 63
     adc:	0f 90       	pop	r0
     ade:	1f 90       	pop	r1
     ae0:	18 95       	reti

00000ae2 <_Z9anim_initv>:
     ae2:	84 e1       	ldi	r24, 0x14	; 20
     ae4:	ea ec       	ldi	r30, 0xCA	; 202
     ae6:	f2 e2       	ldi	r31, 0x22	; 34
     ae8:	df 01       	movw	r26, r30
     aea:	98 2f       	mov	r25, r24
     aec:	1d 92       	st	X+, r1
     aee:	9a 95       	dec	r25
     af0:	e9 f7       	brne	.-6      	; 0xaec <_Z9anim_initv+0xa>
     af2:	e6 eb       	ldi	r30, 0xB6	; 182
     af4:	f2 e2       	ldi	r31, 0x22	; 34
     af6:	df 01       	movw	r26, r30
     af8:	1d 92       	st	X+, r1
     afa:	8a 95       	dec	r24
     afc:	e9 f7       	brne	.-6      	; 0xaf8 <_Z9anim_initv+0x16>
     afe:	80 e2       	ldi	r24, 0x20	; 32
     b00:	e9 e8       	ldi	r30, 0x89	; 137
     b02:	f2 e2       	ldi	r31, 0x22	; 34
     b04:	df 01       	movw	r26, r30
     b06:	98 2f       	mov	r25, r24
     b08:	1d 92       	st	X+, r1
     b0a:	9a 95       	dec	r25
     b0c:	e9 f7       	brne	.-6      	; 0xb08 <_Z9anim_initv+0x26>
     b0e:	e9 e6       	ldi	r30, 0x69	; 105
     b10:	f2 e2       	ldi	r31, 0x22	; 34
     b12:	df 01       	movw	r26, r30
     b14:	98 2f       	mov	r25, r24
     b16:	1d 92       	st	X+, r1
     b18:	9a 95       	dec	r25
     b1a:	e9 f7       	brne	.-6      	; 0xb16 <_Z9anim_initv+0x34>
     b1c:	e9 e4       	ldi	r30, 0x49	; 73
     b1e:	f2 e2       	ldi	r31, 0x22	; 34
     b20:	df 01       	movw	r26, r30
     b22:	1d 92       	st	X+, r1
     b24:	8a 95       	dec	r24
     b26:	e9 f7       	brne	.-6      	; 0xb22 <_Z9anim_initv+0x40>
     b28:	10 92 47 22 	sts	0x2247, r1
     b2c:	10 92 48 22 	sts	0x2248, r1
     b30:	4d e2       	ldi	r20, 0x2D	; 45
     b32:	50 e0       	ldi	r21, 0x00	; 0
     b34:	60 e0       	ldi	r22, 0x00	; 0
     b36:	70 e0       	ldi	r23, 0x00	; 0
     b38:	8a e1       	ldi	r24, 0x1A	; 26
     b3a:	92 e2       	ldi	r25, 0x22	; 34
     b3c:	0e 94 0c 17 	call	0x2e18	; 0x2e18 <__eerd_block_x128a3u>
     b40:	80 91 1a 22 	lds	r24, 0x221A
     b44:	8a 3a       	cpi	r24, 0xAA	; 170
     b46:	09 f4       	brne	.+2      	; 0xb4a <_Z9anim_initv+0x68>
     b48:	67 c0       	rjmp	.+206    	; 0xc18 <_Z9anim_initv+0x136>
     b4a:	8d e2       	ldi	r24, 0x2D	; 45
     b4c:	ea e1       	ldi	r30, 0x1A	; 26
     b4e:	f2 e2       	ldi	r31, 0x22	; 34
     b50:	df 01       	movw	r26, r30
     b52:	1d 92       	st	X+, r1
     b54:	8a 95       	dec	r24
     b56:	e9 f7       	brne	.-6      	; 0xb52 <_Z9anim_initv+0x70>
     b58:	81 e4       	ldi	r24, 0x41	; 65
     b5a:	98 e1       	ldi	r25, 0x18	; 24
     b5c:	80 93 1b 22 	sts	0x221B, r24
     b60:	90 93 1c 22 	sts	0x221C, r25
     b64:	87 e9       	ldi	r24, 0x97	; 151
     b66:	9f e0       	ldi	r25, 0x0F	; 15
     b68:	80 93 1d 22 	sts	0x221D, r24
     b6c:	90 93 1e 22 	sts	0x221E, r25
     b70:	85 e2       	ldi	r24, 0x25	; 37
     b72:	90 e0       	ldi	r25, 0x00	; 0
     b74:	80 93 1f 22 	sts	0x221F, r24
     b78:	90 93 20 22 	sts	0x2220, r25
     b7c:	82 e2       	ldi	r24, 0x22	; 34
     b7e:	90 e0       	ldi	r25, 0x00	; 0
     b80:	80 93 21 22 	sts	0x2221, r24
     b84:	90 93 22 22 	sts	0x2222, r25
     b88:	88 e3       	ldi	r24, 0x38	; 56
     b8a:	90 e0       	ldi	r25, 0x00	; 0
     b8c:	80 93 23 22 	sts	0x2223, r24
     b90:	90 93 24 22 	sts	0x2224, r25
     b94:	84 e6       	ldi	r24, 0x64	; 100
     b96:	90 e0       	ldi	r25, 0x00	; 0
     b98:	80 93 25 22 	sts	0x2225, r24
     b9c:	90 93 26 22 	sts	0x2226, r25
     ba0:	82 e9       	ldi	r24, 0x92	; 146
     ba2:	90 e0       	ldi	r25, 0x00	; 0
     ba4:	80 93 27 22 	sts	0x2227, r24
     ba8:	90 93 28 22 	sts	0x2228, r25
     bac:	83 ed       	ldi	r24, 0xD3	; 211
     bae:	97 e1       	ldi	r25, 0x17	; 23
     bb0:	80 93 2f 22 	sts	0x222F, r24
     bb4:	90 93 30 22 	sts	0x2230, r25
     bb8:	8e e2       	ldi	r24, 0x2E	; 46
     bba:	9f e0       	ldi	r25, 0x0F	; 15
     bbc:	80 93 31 22 	sts	0x2231, r24
     bc0:	90 93 32 22 	sts	0x2232, r25
     bc4:	84 e7       	ldi	r24, 0x74	; 116
     bc6:	90 e0       	ldi	r25, 0x00	; 0
     bc8:	80 93 33 22 	sts	0x2233, r24
     bcc:	90 93 34 22 	sts	0x2234, r25
     bd0:	8d e8       	ldi	r24, 0x8D	; 141
     bd2:	90 e0       	ldi	r25, 0x00	; 0
     bd4:	80 93 35 22 	sts	0x2235, r24
     bd8:	90 93 36 22 	sts	0x2236, r25
     bdc:	85 ed       	ldi	r24, 0xD5	; 213
     bde:	90 e0       	ldi	r25, 0x00	; 0
     be0:	80 93 37 22 	sts	0x2237, r24
     be4:	90 93 38 22 	sts	0x2238, r25
     be8:	88 ea       	ldi	r24, 0xA8	; 168
     bea:	91 e0       	ldi	r25, 0x01	; 1
     bec:	80 93 39 22 	sts	0x2239, r24
     bf0:	90 93 3a 22 	sts	0x223A, r25
     bf4:	89 e8       	ldi	r24, 0x89	; 137
     bf6:	92 e0       	ldi	r25, 0x02	; 2
     bf8:	80 93 3b 22 	sts	0x223B, r24
     bfc:	90 93 3c 22 	sts	0x223C, r25
     c00:	8e e2       	ldi	r24, 0x2E	; 46
     c02:	90 e0       	ldi	r25, 0x00	; 0
     c04:	80 93 43 22 	sts	0x2243, r24
     c08:	90 93 44 22 	sts	0x2244, r25
     c0c:	85 ea       	ldi	r24, 0xA5	; 165
     c0e:	90 e0       	ldi	r25, 0x00	; 0
     c10:	80 93 45 22 	sts	0x2245, r24
     c14:	90 93 46 22 	sts	0x2246, r25
     c18:	10 92 b1 22 	sts	0x22B1, r1
     c1c:	10 92 b0 22 	sts	0x22B0, r1
     c20:	10 92 af 22 	sts	0x22AF, r1
     c24:	10 92 ae 22 	sts	0x22AE, r1
     c28:	08 95       	ret

00000c2a <_Z10anim_framev>:
     c2a:	cf 92       	push	r12
     c2c:	df 92       	push	r13
     c2e:	ff 92       	push	r15
     c30:	0f 93       	push	r16
     c32:	1f 93       	push	r17
     c34:	cf 93       	push	r28
     c36:	df 93       	push	r29
     c38:	cd b7       	in	r28, 0x3d	; 61
     c3a:	de b7       	in	r29, 0x3e	; 62
     c3c:	60 97       	sbiw	r28, 0x10	; 16
     c3e:	cd bf       	out	0x3d, r28	; 61
     c40:	de bf       	out	0x3e, r29	; 62
     c42:	0e 94 fe 16 	call	0x2dfc	; 0x2dfc <rand>
     c46:	6a e0       	ldi	r22, 0x0A	; 10
     c48:	70 e0       	ldi	r23, 0x00	; 0
     c4a:	0e 94 53 16 	call	0x2ca6	; 0x2ca6 <__divmodhi4>
     c4e:	f8 2e       	mov	r15, r24
     c50:	80 93 19 22 	sts	0x2219, r24
     c54:	20 91 d2 22 	lds	r18, 0x22D2
     c58:	30 91 d3 22 	lds	r19, 0x22D3
     c5c:	80 91 d4 22 	lds	r24, 0x22D4
     c60:	90 91 d5 22 	lds	r25, 0x22D5
     c64:	28 0f       	add	r18, r24
     c66:	39 1f       	adc	r19, r25
     c68:	80 91 d6 22 	lds	r24, 0x22D6
     c6c:	90 91 d7 22 	lds	r25, 0x22D7
     c70:	28 0f       	add	r18, r24
     c72:	39 1f       	adc	r19, r25
     c74:	40 91 ca 22 	lds	r20, 0x22CA
     c78:	50 91 cb 22 	lds	r21, 0x22CB
     c7c:	80 91 cc 22 	lds	r24, 0x22CC
     c80:	90 91 cd 22 	lds	r25, 0x22CD
     c84:	48 0f       	add	r20, r24
     c86:	59 1f       	adc	r21, r25
     c88:	60 91 ce 22 	lds	r22, 0x22CE
     c8c:	70 91 cf 22 	lds	r23, 0x22CF
     c90:	46 0f       	add	r20, r22
     c92:	57 1f       	adc	r21, r23
     c94:	60 91 d0 22 	lds	r22, 0x22D0
     c98:	70 91 d1 22 	lds	r23, 0x22D1
     c9c:	46 0f       	add	r20, r22
     c9e:	57 1f       	adc	r21, r23
     ca0:	56 95       	lsr	r21
     ca2:	47 95       	ror	r20
     ca4:	56 95       	lsr	r21
     ca6:	47 95       	ror	r20
     ca8:	40 93 15 22 	sts	0x2215, r20
     cac:	50 93 16 22 	sts	0x2216, r21
     cb0:	ab ea       	ldi	r26, 0xAB	; 171
     cb2:	ba ea       	ldi	r27, 0xAA	; 170
     cb4:	0e 94 8e 16 	call	0x2d1c	; 0x2d1c <__umulhisi3>
     cb8:	96 95       	lsr	r25
     cba:	87 95       	ror	r24
     cbc:	80 93 17 22 	sts	0x2217, r24
     cc0:	90 93 18 22 	sts	0x2218, r25
     cc4:	c0 90 c8 22 	lds	r12, 0x22C8
     cc8:	d0 90 c9 22 	lds	r13, 0x22C9
     ccc:	00 91 c6 22 	lds	r16, 0x22C6
     cd0:	10 91 c7 22 	lds	r17, 0x22C7
     cd4:	a8 01       	movw	r20, r16
     cd6:	4c 0d       	add	r20, r12
     cd8:	5d 1d       	adc	r21, r13
     cda:	56 95       	lsr	r21
     cdc:	47 95       	ror	r20
     cde:	20 91 13 22 	lds	r18, 0x2213
     ce2:	30 91 14 22 	lds	r19, 0x2214
     ce6:	24 17       	cp	r18, r20
     ce8:	35 07       	cpc	r19, r21
     cea:	38 f4       	brcc	.+14     	; 0xcfa <_Z10anim_framev+0xd0>
     cec:	81 e0       	ldi	r24, 0x01	; 1
     cee:	80 93 04 20 	sts	0x2004, r24
     cf2:	40 93 13 22 	sts	0x2213, r20
     cf6:	50 93 14 22 	sts	0x2214, r21
     cfa:	80 91 b1 22 	lds	r24, 0x22B1
     cfe:	88 23       	and	r24, r24
     d00:	99 f0       	breq	.+38     	; 0xd28 <_Z10anim_framev+0xfe>
     d02:	80 91 12 22 	lds	r24, 0x2212
     d06:	8f 5f       	subi	r24, 0xFF	; 255
     d08:	80 93 12 22 	sts	0x2212, r24
     d0c:	80 91 04 20 	lds	r24, 0x2004
     d10:	88 23       	and	r24, r24
     d12:	51 f0       	breq	.+20     	; 0xd28 <_Z10anim_framev+0xfe>
     d14:	8f 2d       	mov	r24, r15
     d16:	90 e0       	ldi	r25, 0x00	; 0
     d18:	8a 30       	cpi	r24, 0x0A	; 10
     d1a:	91 05       	cpc	r25, r1
     d1c:	08 f4       	brcc	.+2      	; 0xd20 <_Z10anim_framev+0xf6>
     d1e:	9d c0       	rjmp	.+314    	; 0xe5a <_Z10anim_framev+0x230>
     d20:	10 92 04 20 	sts	0x2004, r1
     d24:	10 92 12 22 	sts	0x2212, r1
     d28:	8e e0       	ldi	r24, 0x0E	; 14
     d2a:	89 83       	std	Y+1, r24	; 0x01
     d2c:	8b e0       	ldi	r24, 0x0B	; 11
     d2e:	8a 83       	std	Y+2, r24	; 0x02
     d30:	20 91 b6 22 	lds	r18, 0x22B6
     d34:	30 91 b7 22 	lds	r19, 0x22B7
     d38:	a1 ec       	ldi	r26, 0xC1	; 193
     d3a:	bf e0       	ldi	r27, 0x0F	; 15
     d3c:	0e 94 8e 16 	call	0x2d1c	; 0x2d1c <__umulhisi3>
     d40:	92 95       	swap	r25
     d42:	82 95       	swap	r24
     d44:	8f 70       	andi	r24, 0x0F	; 15
     d46:	89 27       	eor	r24, r25
     d48:	9f 70       	andi	r25, 0x0F	; 15
     d4a:	89 27       	eor	r24, r25
     d4c:	8b 83       	std	Y+3, r24	; 0x03
     d4e:	20 91 b8 22 	lds	r18, 0x22B8
     d52:	30 91 b9 22 	lds	r19, 0x22B9
     d56:	0e 94 8e 16 	call	0x2d1c	; 0x2d1c <__umulhisi3>
     d5a:	92 95       	swap	r25
     d5c:	82 95       	swap	r24
     d5e:	8f 70       	andi	r24, 0x0F	; 15
     d60:	89 27       	eor	r24, r25
     d62:	9f 70       	andi	r25, 0x0F	; 15
     d64:	89 27       	eor	r24, r25
     d66:	8c 83       	std	Y+4, r24	; 0x04
     d68:	20 91 ba 22 	lds	r18, 0x22BA
     d6c:	30 91 bb 22 	lds	r19, 0x22BB
     d70:	0e 94 8e 16 	call	0x2d1c	; 0x2d1c <__umulhisi3>
     d74:	92 95       	swap	r25
     d76:	82 95       	swap	r24
     d78:	8f 70       	andi	r24, 0x0F	; 15
     d7a:	89 27       	eor	r24, r25
     d7c:	9f 70       	andi	r25, 0x0F	; 15
     d7e:	89 27       	eor	r24, r25
     d80:	8d 83       	std	Y+5, r24	; 0x05
     d82:	20 91 bc 22 	lds	r18, 0x22BC
     d86:	30 91 bd 22 	lds	r19, 0x22BD
     d8a:	0e 94 8e 16 	call	0x2d1c	; 0x2d1c <__umulhisi3>
     d8e:	92 95       	swap	r25
     d90:	82 95       	swap	r24
     d92:	8f 70       	andi	r24, 0x0F	; 15
     d94:	89 27       	eor	r24, r25
     d96:	9f 70       	andi	r25, 0x0F	; 15
     d98:	89 27       	eor	r24, r25
     d9a:	8e 83       	std	Y+6, r24	; 0x06
     d9c:	20 91 be 22 	lds	r18, 0x22BE
     da0:	30 91 bf 22 	lds	r19, 0x22BF
     da4:	0e 94 8e 16 	call	0x2d1c	; 0x2d1c <__umulhisi3>
     da8:	92 95       	swap	r25
     daa:	82 95       	swap	r24
     dac:	8f 70       	andi	r24, 0x0F	; 15
     dae:	89 27       	eor	r24, r25
     db0:	9f 70       	andi	r25, 0x0F	; 15
     db2:	89 27       	eor	r24, r25
     db4:	8f 83       	std	Y+7, r24	; 0x07
     db6:	20 91 c0 22 	lds	r18, 0x22C0
     dba:	30 91 c1 22 	lds	r19, 0x22C1
     dbe:	0e 94 8e 16 	call	0x2d1c	; 0x2d1c <__umulhisi3>
     dc2:	92 95       	swap	r25
     dc4:	82 95       	swap	r24
     dc6:	8f 70       	andi	r24, 0x0F	; 15
     dc8:	89 27       	eor	r24, r25
     dca:	9f 70       	andi	r25, 0x0F	; 15
     dcc:	89 27       	eor	r24, r25
     dce:	88 87       	std	Y+8, r24	; 0x08
     dd0:	20 91 c2 22 	lds	r18, 0x22C2
     dd4:	30 91 c3 22 	lds	r19, 0x22C3
     dd8:	0e 94 8e 16 	call	0x2d1c	; 0x2d1c <__umulhisi3>
     ddc:	92 95       	swap	r25
     dde:	82 95       	swap	r24
     de0:	8f 70       	andi	r24, 0x0F	; 15
     de2:	89 27       	eor	r24, r25
     de4:	9f 70       	andi	r25, 0x0F	; 15
     de6:	89 27       	eor	r24, r25
     de8:	89 87       	std	Y+9, r24	; 0x09
     dea:	20 91 c4 22 	lds	r18, 0x22C4
     dee:	30 91 c5 22 	lds	r19, 0x22C5
     df2:	0e 94 8e 16 	call	0x2d1c	; 0x2d1c <__umulhisi3>
     df6:	92 95       	swap	r25
     df8:	82 95       	swap	r24
     dfa:	8f 70       	andi	r24, 0x0F	; 15
     dfc:	89 27       	eor	r24, r25
     dfe:	9f 70       	andi	r25, 0x0F	; 15
     e00:	89 27       	eor	r24, r25
     e02:	8a 87       	std	Y+10, r24	; 0x0a
     e04:	98 01       	movw	r18, r16
     e06:	0e 94 8e 16 	call	0x2d1c	; 0x2d1c <__umulhisi3>
     e0a:	92 95       	swap	r25
     e0c:	82 95       	swap	r24
     e0e:	8f 70       	andi	r24, 0x0F	; 15
     e10:	89 27       	eor	r24, r25
     e12:	9f 70       	andi	r25, 0x0F	; 15
     e14:	89 27       	eor	r24, r25
     e16:	8b 87       	std	Y+11, r24	; 0x0b
     e18:	96 01       	movw	r18, r12
     e1a:	0e 94 8e 16 	call	0x2d1c	; 0x2d1c <__umulhisi3>
     e1e:	92 95       	swap	r25
     e20:	82 95       	swap	r24
     e22:	8f 70       	andi	r24, 0x0F	; 15
     e24:	89 27       	eor	r24, r25
     e26:	9f 70       	andi	r25, 0x0F	; 15
     e28:	89 27       	eor	r24, r25
     e2a:	8c 87       	std	Y+12, r24	; 0x0c
     e2c:	8c e8       	ldi	r24, 0x8C	; 140
     e2e:	8d 87       	std	Y+13, r24	; 0x0d
     e30:	60 e1       	ldi	r22, 0x10	; 16
     e32:	ce 01       	movw	r24, r28
     e34:	01 96       	adiw	r24, 0x01	; 1
     e36:	0e 94 91 14 	call	0x2922	; 0x2922 <_Z14wl_module_sendPhh>
     e3a:	80 91 11 22 	lds	r24, 0x2211
     e3e:	8f 5f       	subi	r24, 0xFF	; 255
     e40:	80 93 11 22 	sts	0x2211, r24
     e44:	60 96       	adiw	r28, 0x10	; 16
     e46:	cd bf       	out	0x3d, r28	; 61
     e48:	de bf       	out	0x3e, r29	; 62
     e4a:	df 91       	pop	r29
     e4c:	cf 91       	pop	r28
     e4e:	1f 91       	pop	r17
     e50:	0f 91       	pop	r16
     e52:	ff 90       	pop	r15
     e54:	df 90       	pop	r13
     e56:	cf 90       	pop	r12
     e58:	08 95       	ret
     e5a:	82 50       	subi	r24, 0x02	; 2
     e5c:	9f 4f       	sbci	r25, 0xFF	; 255
     e5e:	fc 01       	movw	r30, r24
     e60:	0c 94 88 16 	jmp	0x2d10	; 0x2d10 <__tablejump2__>
     e64:	8c e8       	ldi	r24, 0x8C	; 140
     e66:	80 93 05 20 	sts	0x2005, r24
     e6a:	10 92 04 20 	sts	0x2004, r1
     e6e:	10 92 12 22 	sts	0x2212, r1
     e72:	5a cf       	rjmp	.-332    	; 0xd28 <_Z10anim_framev+0xfe>
     e74:	8a ef       	ldi	r24, 0xFA	; 250
     e76:	80 93 05 20 	sts	0x2005, r24
     e7a:	10 92 04 20 	sts	0x2004, r1
     e7e:	10 92 12 22 	sts	0x2212, r1
     e82:	52 cf       	rjmp	.-348    	; 0xd28 <_Z10anim_framev+0xfe>

00000e84 <_Z14anim_inputDataP12fft_result_tS0_>:
     e84:	2f 92       	push	r2
     e86:	3f 92       	push	r3
     e88:	4f 92       	push	r4
     e8a:	5f 92       	push	r5
     e8c:	6f 92       	push	r6
     e8e:	7f 92       	push	r7
     e90:	8f 92       	push	r8
     e92:	9f 92       	push	r9
     e94:	af 92       	push	r10
     e96:	bf 92       	push	r11
     e98:	cf 92       	push	r12
     e9a:	df 92       	push	r13
     e9c:	ef 92       	push	r14
     e9e:	ff 92       	push	r15
     ea0:	0f 93       	push	r16
     ea2:	1f 93       	push	r17
     ea4:	cf 93       	push	r28
     ea6:	df 93       	push	r29
     ea8:	cd b7       	in	r28, 0x3d	; 61
     eaa:	de b7       	in	r29, 0x3e	; 62
     eac:	c8 55       	subi	r28, 0x58	; 88
     eae:	d1 09       	sbc	r29, r1
     eb0:	cd bf       	out	0x3d, r28	; 61
     eb2:	de bf       	out	0x3e, r29	; 62
     eb4:	89 83       	std	Y+1, r24	; 0x01
     eb6:	9a 83       	std	Y+2, r25	; 0x02
     eb8:	6b 83       	std	Y+3, r22	; 0x03
     eba:	7c 83       	std	Y+4, r23	; 0x04
     ebc:	dc 01       	movw	r26, r24
     ebe:	4d 90       	ld	r4, X+
     ec0:	5c 90       	ld	r5, X
     ec2:	11 97       	sbiw	r26, 0x01	; 1
     ec4:	40 92 ca 22 	sts	0x22CA, r4
     ec8:	50 92 cb 22 	sts	0x22CB, r5
     ecc:	fb 01       	movw	r30, r22
     ece:	00 81       	ld	r16, Z
     ed0:	11 81       	ldd	r17, Z+1	; 0x01
     ed2:	00 93 b6 22 	sts	0x22B6, r16
     ed6:	10 93 b7 22 	sts	0x22B7, r17
     eda:	12 96       	adiw	r26, 0x02	; 2
     edc:	2d 91       	ld	r18, X+
     ede:	3c 91       	ld	r19, X
     ee0:	13 97       	sbiw	r26, 0x03	; 3
     ee2:	29 87       	std	Y+9, r18	; 0x09
     ee4:	3a 87       	std	Y+10, r19	; 0x0a
     ee6:	20 93 cc 22 	sts	0x22CC, r18
     eea:	30 93 cd 22 	sts	0x22CD, r19
     eee:	42 81       	ldd	r20, Z+2	; 0x02
     ef0:	53 81       	ldd	r21, Z+3	; 0x03
     ef2:	4b 87       	std	Y+11, r20	; 0x0b
     ef4:	5c 87       	std	Y+12, r21	; 0x0c
     ef6:	40 93 b8 22 	sts	0x22B8, r20
     efa:	50 93 b9 22 	sts	0x22B9, r21
     efe:	14 96       	adiw	r26, 0x04	; 4
     f00:	8d 91       	ld	r24, X+
     f02:	9c 91       	ld	r25, X
     f04:	15 97       	sbiw	r26, 0x05	; 5
     f06:	8d 87       	std	Y+13, r24	; 0x0d
     f08:	9e 87       	std	Y+14, r25	; 0x0e
     f0a:	80 93 ce 22 	sts	0x22CE, r24
     f0e:	90 93 cf 22 	sts	0x22CF, r25
     f12:	a4 81       	ldd	r26, Z+4	; 0x04
     f14:	b5 81       	ldd	r27, Z+5	; 0x05
     f16:	af 87       	std	Y+15, r26	; 0x0f
     f18:	b8 8b       	std	Y+16, r27	; 0x10
     f1a:	a0 93 ba 22 	sts	0x22BA, r26
     f1e:	b0 93 bb 22 	sts	0x22BB, r27
     f22:	e9 81       	ldd	r30, Y+1	; 0x01
     f24:	fa 81       	ldd	r31, Y+2	; 0x02
     f26:	06 80       	ldd	r0, Z+6	; 0x06
     f28:	f7 81       	ldd	r31, Z+7	; 0x07
     f2a:	e0 2d       	mov	r30, r0
     f2c:	e9 8b       	std	Y+17, r30	; 0x11
     f2e:	fa 8b       	std	Y+18, r31	; 0x12
     f30:	e0 93 d0 22 	sts	0x22D0, r30
     f34:	f0 93 d1 22 	sts	0x22D1, r31
     f38:	db 01       	movw	r26, r22
     f3a:	16 96       	adiw	r26, 0x06	; 6
     f3c:	0d 90       	ld	r0, X+
     f3e:	bc 91       	ld	r27, X
     f40:	a0 2d       	mov	r26, r0
     f42:	ab 8b       	std	Y+19, r26	; 0x13
     f44:	bc 8b       	std	Y+20, r27	; 0x14
     f46:	a0 93 bc 22 	sts	0x22BC, r26
     f4a:	b0 93 bd 22 	sts	0x22BD, r27
     f4e:	fb 01       	movw	r30, r22
     f50:	02 84       	ldd	r0, Z+10	; 0x0a
     f52:	f3 85       	ldd	r31, Z+11	; 0x0b
     f54:	e0 2d       	mov	r30, r0
     f56:	eb 8f       	std	Y+27, r30	; 0x1b
     f58:	fc 8f       	std	Y+28, r31	; 0x1c
     f5a:	db 01       	movw	r26, r22
     f5c:	18 96       	adiw	r26, 0x08	; 8
     f5e:	0d 90       	ld	r0, X+
     f60:	bc 91       	ld	r27, X
     f62:	a0 2d       	mov	r26, r0
     f64:	af 8b       	std	Y+23, r26	; 0x17
     f66:	b8 8f       	std	Y+24, r27	; 0x18
     f68:	cd 01       	movw	r24, r26
     f6a:	a0 e0       	ldi	r26, 0x00	; 0
     f6c:	b0 e0       	ldi	r27, 0x00	; 0
     f6e:	8e 0f       	add	r24, r30
     f70:	9f 1f       	adc	r25, r31
     f72:	a1 1d       	adc	r26, r1
     f74:	b1 1d       	adc	r27, r1
     f76:	e9 81       	ldd	r30, Y+1	; 0x01
     f78:	fa 81       	ldd	r31, Y+2	; 0x02
     f7a:	02 84       	ldd	r0, Z+10	; 0x0a
     f7c:	f3 85       	ldd	r31, Z+11	; 0x0b
     f7e:	e0 2d       	mov	r30, r0
     f80:	e9 8f       	std	Y+25, r30	; 0x19
     f82:	fa 8f       	std	Y+26, r31	; 0x1a
     f84:	e9 81       	ldd	r30, Y+1	; 0x01
     f86:	fa 81       	ldd	r31, Y+2	; 0x02
     f88:	00 84       	ldd	r0, Z+8	; 0x08
     f8a:	f1 85       	ldd	r31, Z+9	; 0x09
     f8c:	e0 2d       	mov	r30, r0
     f8e:	ed 8b       	std	Y+21, r30	; 0x15
     f90:	fe 8b       	std	Y+22, r31	; 0x16
     f92:	af 01       	movw	r20, r30
     f94:	60 e0       	ldi	r22, 0x00	; 0
     f96:	70 e0       	ldi	r23, 0x00	; 0
     f98:	29 8d       	ldd	r18, Y+25	; 0x19
     f9a:	3a 8d       	ldd	r19, Y+26	; 0x1a
     f9c:	42 0f       	add	r20, r18
     f9e:	53 1f       	adc	r21, r19
     fa0:	61 1d       	adc	r22, r1
     fa2:	71 1d       	adc	r23, r1
     fa4:	76 95       	lsr	r23
     fa6:	67 95       	ror	r22
     fa8:	57 95       	ror	r21
     faa:	47 95       	ror	r20
     fac:	40 93 d2 22 	sts	0x22D2, r20
     fb0:	50 93 d3 22 	sts	0x22D3, r21
     fb4:	b6 95       	lsr	r27
     fb6:	a7 95       	ror	r26
     fb8:	97 95       	ror	r25
     fba:	87 95       	ror	r24
     fbc:	80 93 be 22 	sts	0x22BE, r24
     fc0:	90 93 bf 22 	sts	0x22BF, r25
     fc4:	ab 81       	ldd	r26, Y+3	; 0x03
     fc6:	bc 81       	ldd	r27, Y+4	; 0x04
     fc8:	1e 96       	adiw	r26, 0x0e	; 14
     fca:	0d 90       	ld	r0, X+
     fcc:	bc 91       	ld	r27, X
     fce:	a0 2d       	mov	r26, r0
     fd0:	ab a3       	std	Y+35, r26	; 0x23
     fd2:	bc a3       	std	Y+36, r27	; 0x24
     fd4:	eb 81       	ldd	r30, Y+3	; 0x03
     fd6:	fc 81       	ldd	r31, Y+4	; 0x04
     fd8:	04 84       	ldd	r0, Z+12	; 0x0c
     fda:	f5 85       	ldd	r31, Z+13	; 0x0d
     fdc:	e0 2d       	mov	r30, r0
     fde:	ef 8f       	std	Y+31, r30	; 0x1f
     fe0:	f8 a3       	std	Y+32, r31	; 0x20
     fe2:	cf 01       	movw	r24, r30
     fe4:	a0 e0       	ldi	r26, 0x00	; 0
     fe6:	b0 e0       	ldi	r27, 0x00	; 0
     fe8:	2b a1       	ldd	r18, Y+35	; 0x23
     fea:	3c a1       	ldd	r19, Y+36	; 0x24
     fec:	82 0f       	add	r24, r18
     fee:	93 1f       	adc	r25, r19
     ff0:	a1 1d       	adc	r26, r1
     ff2:	b1 1d       	adc	r27, r1
     ff4:	e9 81       	ldd	r30, Y+1	; 0x01
     ff6:	fa 81       	ldd	r31, Y+2	; 0x02
     ff8:	06 84       	ldd	r0, Z+14	; 0x0e
     ffa:	f7 85       	ldd	r31, Z+15	; 0x0f
     ffc:	e0 2d       	mov	r30, r0
     ffe:	e9 a3       	std	Y+33, r30	; 0x21
    1000:	fa a3       	std	Y+34, r31	; 0x22
    1002:	e9 81       	ldd	r30, Y+1	; 0x01
    1004:	fa 81       	ldd	r31, Y+2	; 0x02
    1006:	04 84       	ldd	r0, Z+12	; 0x0c
    1008:	f5 85       	ldd	r31, Z+13	; 0x0d
    100a:	e0 2d       	mov	r30, r0
    100c:	ed 8f       	std	Y+29, r30	; 0x1d
    100e:	fe 8f       	std	Y+30, r31	; 0x1e
    1010:	af 01       	movw	r20, r30
    1012:	60 e0       	ldi	r22, 0x00	; 0
    1014:	70 e0       	ldi	r23, 0x00	; 0
    1016:	29 a1       	ldd	r18, Y+33	; 0x21
    1018:	3a a1       	ldd	r19, Y+34	; 0x22
    101a:	42 0f       	add	r20, r18
    101c:	53 1f       	adc	r21, r19
    101e:	61 1d       	adc	r22, r1
    1020:	71 1d       	adc	r23, r1
    1022:	76 95       	lsr	r23
    1024:	67 95       	ror	r22
    1026:	57 95       	ror	r21
    1028:	47 95       	ror	r20
    102a:	40 93 d4 22 	sts	0x22D4, r20
    102e:	50 93 d5 22 	sts	0x22D5, r21
    1032:	b6 95       	lsr	r27
    1034:	a7 95       	ror	r26
    1036:	97 95       	ror	r25
    1038:	87 95       	ror	r24
    103a:	80 93 c0 22 	sts	0x22C0, r24
    103e:	90 93 c1 22 	sts	0x22C1, r25
    1042:	a9 81       	ldd	r26, Y+1	; 0x01
    1044:	ba 81       	ldd	r27, Y+2	; 0x02
    1046:	50 96       	adiw	r26, 0x10	; 16
    1048:	0d 90       	ld	r0, X+
    104a:	bc 91       	ld	r27, X
    104c:	a0 2d       	mov	r26, r0
    104e:	ad a3       	std	Y+37, r26	; 0x25
    1050:	be a3       	std	Y+38, r27	; 0x26
    1052:	e9 81       	ldd	r30, Y+1	; 0x01
    1054:	fa 81       	ldd	r31, Y+2	; 0x02
    1056:	02 88       	ldd	r0, Z+18	; 0x12
    1058:	f3 89       	ldd	r31, Z+19	; 0x13
    105a:	e0 2d       	mov	r30, r0
    105c:	e9 a7       	std	Y+41, r30	; 0x29
    105e:	fa a7       	std	Y+42, r31	; 0x2a
    1060:	af 01       	movw	r20, r30
    1062:	60 e0       	ldi	r22, 0x00	; 0
    1064:	70 e0       	ldi	r23, 0x00	; 0
    1066:	4a 0f       	add	r20, r26
    1068:	5b 1f       	adc	r21, r27
    106a:	61 1d       	adc	r22, r1
    106c:	71 1d       	adc	r23, r1
    106e:	ab 81       	ldd	r26, Y+3	; 0x03
    1070:	bc 81       	ldd	r27, Y+4	; 0x04
    1072:	50 96       	adiw	r26, 0x10	; 16
    1074:	0d 90       	ld	r0, X+
    1076:	bc 91       	ld	r27, X
    1078:	a0 2d       	mov	r26, r0
    107a:	af a3       	std	Y+39, r26	; 0x27
    107c:	b8 a7       	std	Y+40, r27	; 0x28
    107e:	eb 81       	ldd	r30, Y+3	; 0x03
    1080:	fc 81       	ldd	r31, Y+4	; 0x04
    1082:	02 88       	ldd	r0, Z+18	; 0x12
    1084:	f3 89       	ldd	r31, Z+19	; 0x13
    1086:	e0 2d       	mov	r30, r0
    1088:	eb a7       	std	Y+43, r30	; 0x2b
    108a:	fc a7       	std	Y+44, r31	; 0x2c
    108c:	cf 01       	movw	r24, r30
    108e:	a0 e0       	ldi	r26, 0x00	; 0
    1090:	b0 e0       	ldi	r27, 0x00	; 0
    1092:	2f a1       	ldd	r18, Y+39	; 0x27
    1094:	38 a5       	ldd	r19, Y+40	; 0x28
    1096:	82 0f       	add	r24, r18
    1098:	93 1f       	adc	r25, r19
    109a:	a1 1d       	adc	r26, r1
    109c:	b1 1d       	adc	r27, r1
    109e:	e9 81       	ldd	r30, Y+1	; 0x01
    10a0:	fa 81       	ldd	r31, Y+2	; 0x02
    10a2:	04 88       	ldd	r0, Z+20	; 0x14
    10a4:	f5 89       	ldd	r31, Z+21	; 0x15
    10a6:	e0 2d       	mov	r30, r0
    10a8:	ed a7       	std	Y+45, r30	; 0x2d
    10aa:	fe a7       	std	Y+46, r31	; 0x2e
    10ac:	4e 0f       	add	r20, r30
    10ae:	5f 1f       	adc	r21, r31
    10b0:	61 1d       	adc	r22, r1
    10b2:	71 1d       	adc	r23, r1
    10b4:	eb 81       	ldd	r30, Y+3	; 0x03
    10b6:	fc 81       	ldd	r31, Y+4	; 0x04
    10b8:	04 88       	ldd	r0, Z+20	; 0x14
    10ba:	f5 89       	ldd	r31, Z+21	; 0x15
    10bc:	e0 2d       	mov	r30, r0
    10be:	ef a7       	std	Y+47, r30	; 0x2f
    10c0:	f8 ab       	std	Y+48, r31	; 0x30
    10c2:	8e 0f       	add	r24, r30
    10c4:	9f 1f       	adc	r25, r31
    10c6:	a1 1d       	adc	r26, r1
    10c8:	b1 1d       	adc	r27, r1
    10ca:	eb 81       	ldd	r30, Y+3	; 0x03
    10cc:	fc 81       	ldd	r31, Y+4	; 0x04
    10ce:	06 88       	ldd	r0, Z+22	; 0x16
    10d0:	f7 89       	ldd	r31, Z+23	; 0x17
    10d2:	e0 2d       	mov	r30, r0
    10d4:	eb ab       	std	Y+51, r30	; 0x33
    10d6:	fc ab       	std	Y+52, r31	; 0x34
    10d8:	8e 0f       	add	r24, r30
    10da:	9f 1f       	adc	r25, r31
    10dc:	a1 1d       	adc	r26, r1
    10de:	b1 1d       	adc	r27, r1
    10e0:	e9 81       	ldd	r30, Y+1	; 0x01
    10e2:	fa 81       	ldd	r31, Y+2	; 0x02
    10e4:	06 88       	ldd	r0, Z+22	; 0x16
    10e6:	f7 89       	ldd	r31, Z+23	; 0x17
    10e8:	e0 2d       	mov	r30, r0
    10ea:	e9 ab       	std	Y+49, r30	; 0x31
    10ec:	fa ab       	std	Y+50, r31	; 0x32
    10ee:	4e 0f       	add	r20, r30
    10f0:	5f 1f       	adc	r21, r31
    10f2:	61 1d       	adc	r22, r1
    10f4:	71 1d       	adc	r23, r1
    10f6:	76 95       	lsr	r23
    10f8:	67 95       	ror	r22
    10fa:	57 95       	ror	r21
    10fc:	47 95       	ror	r20
    10fe:	76 95       	lsr	r23
    1100:	67 95       	ror	r22
    1102:	57 95       	ror	r21
    1104:	47 95       	ror	r20
    1106:	40 93 d6 22 	sts	0x22D6, r20
    110a:	50 93 d7 22 	sts	0x22D7, r21
    110e:	b6 95       	lsr	r27
    1110:	a7 95       	ror	r26
    1112:	97 95       	ror	r25
    1114:	87 95       	ror	r24
    1116:	b6 95       	lsr	r27
    1118:	a7 95       	ror	r26
    111a:	97 95       	ror	r25
    111c:	87 95       	ror	r24
    111e:	80 93 c2 22 	sts	0x22C2, r24
    1122:	90 93 c3 22 	sts	0x22C3, r25
    1126:	a9 81       	ldd	r26, Y+1	; 0x01
    1128:	ba 81       	ldd	r27, Y+2	; 0x02
    112a:	58 96       	adiw	r26, 0x18	; 24
    112c:	0d 90       	ld	r0, X+
    112e:	bc 91       	ld	r27, X
    1130:	a0 2d       	mov	r26, r0
    1132:	ad ab       	std	Y+53, r26	; 0x35
    1134:	be ab       	std	Y+54, r27	; 0x36
    1136:	e9 81       	ldd	r30, Y+1	; 0x01
    1138:	fa 81       	ldd	r31, Y+2	; 0x02
    113a:	02 8c       	ldd	r0, Z+26	; 0x1a
    113c:	f3 8d       	ldd	r31, Z+27	; 0x1b
    113e:	e0 2d       	mov	r30, r0
    1140:	e9 af       	std	Y+57, r30	; 0x39
    1142:	fa af       	std	Y+58, r31	; 0x3a
    1144:	af 01       	movw	r20, r30
    1146:	60 e0       	ldi	r22, 0x00	; 0
    1148:	70 e0       	ldi	r23, 0x00	; 0
    114a:	4a 0f       	add	r20, r26
    114c:	5b 1f       	adc	r21, r27
    114e:	61 1d       	adc	r22, r1
    1150:	71 1d       	adc	r23, r1
    1152:	ab 81       	ldd	r26, Y+3	; 0x03
    1154:	bc 81       	ldd	r27, Y+4	; 0x04
    1156:	58 96       	adiw	r26, 0x18	; 24
    1158:	0d 90       	ld	r0, X+
    115a:	bc 91       	ld	r27, X
    115c:	a0 2d       	mov	r26, r0
    115e:	af ab       	std	Y+55, r26	; 0x37
    1160:	b8 af       	std	Y+56, r27	; 0x38
    1162:	eb 81       	ldd	r30, Y+3	; 0x03
    1164:	fc 81       	ldd	r31, Y+4	; 0x04
    1166:	02 8c       	ldd	r0, Z+26	; 0x1a
    1168:	f3 8d       	ldd	r31, Z+27	; 0x1b
    116a:	e0 2d       	mov	r30, r0
    116c:	eb af       	std	Y+59, r30	; 0x3b
    116e:	fc af       	std	Y+60, r31	; 0x3c
    1170:	cf 01       	movw	r24, r30
    1172:	a0 e0       	ldi	r26, 0x00	; 0
    1174:	b0 e0       	ldi	r27, 0x00	; 0
    1176:	2f a9       	ldd	r18, Y+55	; 0x37
    1178:	38 ad       	ldd	r19, Y+56	; 0x38
    117a:	82 0f       	add	r24, r18
    117c:	93 1f       	adc	r25, r19
    117e:	a1 1d       	adc	r26, r1
    1180:	b1 1d       	adc	r27, r1
    1182:	e9 81       	ldd	r30, Y+1	; 0x01
    1184:	fa 81       	ldd	r31, Y+2	; 0x02
    1186:	04 8c       	ldd	r0, Z+28	; 0x1c
    1188:	f5 8d       	ldd	r31, Z+29	; 0x1d
    118a:	e0 2d       	mov	r30, r0
    118c:	ed af       	std	Y+61, r30	; 0x3d
    118e:	fe af       	std	Y+62, r31	; 0x3e
    1190:	4e 0f       	add	r20, r30
    1192:	5f 1f       	adc	r21, r31
    1194:	61 1d       	adc	r22, r1
    1196:	71 1d       	adc	r23, r1
    1198:	eb 81       	ldd	r30, Y+3	; 0x03
    119a:	fc 81       	ldd	r31, Y+4	; 0x04
    119c:	04 8c       	ldd	r0, Z+28	; 0x1c
    119e:	f5 8d       	ldd	r31, Z+29	; 0x1d
    11a0:	e0 2d       	mov	r30, r0
    11a2:	21 96       	adiw	r28, 0x01	; 1
    11a4:	ee af       	std	Y+62, r30	; 0x3e
    11a6:	ff af       	std	Y+63, r31	; 0x3f
    11a8:	21 97       	sbiw	r28, 0x01	; 1
    11aa:	8e 0f       	add	r24, r30
    11ac:	9f 1f       	adc	r25, r31
    11ae:	a1 1d       	adc	r26, r1
    11b0:	b1 1d       	adc	r27, r1
    11b2:	eb 81       	ldd	r30, Y+3	; 0x03
    11b4:	fc 81       	ldd	r31, Y+4	; 0x04
    11b6:	06 8c       	ldd	r0, Z+30	; 0x1e
    11b8:	f7 8d       	ldd	r31, Z+31	; 0x1f
    11ba:	e0 2d       	mov	r30, r0
    11bc:	25 96       	adiw	r28, 0x05	; 5
    11be:	ee af       	std	Y+62, r30	; 0x3e
    11c0:	ff af       	std	Y+63, r31	; 0x3f
    11c2:	25 97       	sbiw	r28, 0x05	; 5
    11c4:	8e 0f       	add	r24, r30
    11c6:	9f 1f       	adc	r25, r31
    11c8:	a1 1d       	adc	r26, r1
    11ca:	b1 1d       	adc	r27, r1
    11cc:	e9 81       	ldd	r30, Y+1	; 0x01
    11ce:	fa 81       	ldd	r31, Y+2	; 0x02
    11d0:	06 8c       	ldd	r0, Z+30	; 0x1e
    11d2:	f7 8d       	ldd	r31, Z+31	; 0x1f
    11d4:	e0 2d       	mov	r30, r0
    11d6:	23 96       	adiw	r28, 0x03	; 3
    11d8:	ee af       	std	Y+62, r30	; 0x3e
    11da:	ff af       	std	Y+63, r31	; 0x3f
    11dc:	23 97       	sbiw	r28, 0x03	; 3
    11de:	4e 0f       	add	r20, r30
    11e0:	5f 1f       	adc	r21, r31
    11e2:	61 1d       	adc	r22, r1
    11e4:	71 1d       	adc	r23, r1
    11e6:	76 95       	lsr	r23
    11e8:	67 95       	ror	r22
    11ea:	57 95       	ror	r21
    11ec:	47 95       	ror	r20
    11ee:	76 95       	lsr	r23
    11f0:	67 95       	ror	r22
    11f2:	57 95       	ror	r21
    11f4:	47 95       	ror	r20
    11f6:	40 93 d8 22 	sts	0x22D8, r20
    11fa:	50 93 d9 22 	sts	0x22D9, r21
    11fe:	b6 95       	lsr	r27
    1200:	a7 95       	ror	r26
    1202:	97 95       	ror	r25
    1204:	87 95       	ror	r24
    1206:	b6 95       	lsr	r27
    1208:	a7 95       	ror	r26
    120a:	97 95       	ror	r25
    120c:	87 95       	ror	r24
    120e:	80 93 c4 22 	sts	0x22C4, r24
    1212:	90 93 c5 22 	sts	0x22C5, r25
    1216:	a9 81       	ldd	r26, Y+1	; 0x01
    1218:	ba 81       	ldd	r27, Y+2	; 0x02
    121a:	90 96       	adiw	r26, 0x20	; 32
    121c:	0d 90       	ld	r0, X+
    121e:	bc 91       	ld	r27, X
    1220:	a0 2d       	mov	r26, r0
    1222:	27 96       	adiw	r28, 0x07	; 7
    1224:	ae af       	std	Y+62, r26	; 0x3e
    1226:	bf af       	std	Y+63, r27	; 0x3f
    1228:	27 97       	sbiw	r28, 0x07	; 7
    122a:	e9 81       	ldd	r30, Y+1	; 0x01
    122c:	fa 81       	ldd	r31, Y+2	; 0x02
    122e:	02 a0       	ldd	r0, Z+34	; 0x22
    1230:	f3 a1       	ldd	r31, Z+35	; 0x23
    1232:	e0 2d       	mov	r30, r0
    1234:	2b 96       	adiw	r28, 0x0b	; 11
    1236:	ee af       	std	Y+62, r30	; 0x3e
    1238:	ff af       	std	Y+63, r31	; 0x3f
    123a:	2b 97       	sbiw	r28, 0x0b	; 11
    123c:	af 01       	movw	r20, r30
    123e:	60 e0       	ldi	r22, 0x00	; 0
    1240:	70 e0       	ldi	r23, 0x00	; 0
    1242:	4a 0f       	add	r20, r26
    1244:	5b 1f       	adc	r21, r27
    1246:	61 1d       	adc	r22, r1
    1248:	71 1d       	adc	r23, r1
    124a:	ab 81       	ldd	r26, Y+3	; 0x03
    124c:	bc 81       	ldd	r27, Y+4	; 0x04
    124e:	90 96       	adiw	r26, 0x20	; 32
    1250:	0d 90       	ld	r0, X+
    1252:	bc 91       	ld	r27, X
    1254:	a0 2d       	mov	r26, r0
    1256:	29 96       	adiw	r28, 0x09	; 9
    1258:	ae af       	std	Y+62, r26	; 0x3e
    125a:	bf af       	std	Y+63, r27	; 0x3f
    125c:	29 97       	sbiw	r28, 0x09	; 9
    125e:	eb 81       	ldd	r30, Y+3	; 0x03
    1260:	fc 81       	ldd	r31, Y+4	; 0x04
    1262:	02 a0       	ldd	r0, Z+34	; 0x22
    1264:	f3 a1       	ldd	r31, Z+35	; 0x23
    1266:	e0 2d       	mov	r30, r0
    1268:	2d 96       	adiw	r28, 0x0d	; 13
    126a:	ee af       	std	Y+62, r30	; 0x3e
    126c:	ff af       	std	Y+63, r31	; 0x3f
    126e:	2d 97       	sbiw	r28, 0x0d	; 13
    1270:	cf 01       	movw	r24, r30
    1272:	a0 e0       	ldi	r26, 0x00	; 0
    1274:	b0 e0       	ldi	r27, 0x00	; 0
    1276:	29 96       	adiw	r28, 0x09	; 9
    1278:	2e ad       	ldd	r18, Y+62	; 0x3e
    127a:	3f ad       	ldd	r19, Y+63	; 0x3f
    127c:	29 97       	sbiw	r28, 0x09	; 9
    127e:	82 0f       	add	r24, r18
    1280:	93 1f       	adc	r25, r19
    1282:	a1 1d       	adc	r26, r1
    1284:	b1 1d       	adc	r27, r1
    1286:	e9 81       	ldd	r30, Y+1	; 0x01
    1288:	fa 81       	ldd	r31, Y+2	; 0x02
    128a:	04 a0       	ldd	r0, Z+36	; 0x24
    128c:	f5 a1       	ldd	r31, Z+37	; 0x25
    128e:	e0 2d       	mov	r30, r0
    1290:	2f 96       	adiw	r28, 0x0f	; 15
    1292:	ee af       	std	Y+62, r30	; 0x3e
    1294:	ff af       	std	Y+63, r31	; 0x3f
    1296:	2f 97       	sbiw	r28, 0x0f	; 15
    1298:	4e 0f       	add	r20, r30
    129a:	5f 1f       	adc	r21, r31
    129c:	61 1d       	adc	r22, r1
    129e:	71 1d       	adc	r23, r1
    12a0:	eb 81       	ldd	r30, Y+3	; 0x03
    12a2:	fc 81       	ldd	r31, Y+4	; 0x04
    12a4:	04 a0       	ldd	r0, Z+36	; 0x24
    12a6:	f5 a1       	ldd	r31, Z+37	; 0x25
    12a8:	e0 2d       	mov	r30, r0
    12aa:	61 96       	adiw	r28, 0x11	; 17
    12ac:	ee af       	std	Y+62, r30	; 0x3e
    12ae:	ff af       	std	Y+63, r31	; 0x3f
    12b0:	61 97       	sbiw	r28, 0x11	; 17
    12b2:	8e 0f       	add	r24, r30
    12b4:	9f 1f       	adc	r25, r31
    12b6:	a1 1d       	adc	r26, r1
    12b8:	b1 1d       	adc	r27, r1
    12ba:	e9 81       	ldd	r30, Y+1	; 0x01
    12bc:	fa 81       	ldd	r31, Y+2	; 0x02
    12be:	06 a0       	ldd	r0, Z+38	; 0x26
    12c0:	f7 a1       	ldd	r31, Z+39	; 0x27
    12c2:	e0 2d       	mov	r30, r0
    12c4:	63 96       	adiw	r28, 0x13	; 19
    12c6:	ee af       	std	Y+62, r30	; 0x3e
    12c8:	ff af       	std	Y+63, r31	; 0x3f
    12ca:	63 97       	sbiw	r28, 0x13	; 19
    12cc:	4e 0f       	add	r20, r30
    12ce:	5f 1f       	adc	r21, r31
    12d0:	61 1d       	adc	r22, r1
    12d2:	71 1d       	adc	r23, r1
    12d4:	eb 81       	ldd	r30, Y+3	; 0x03
    12d6:	fc 81       	ldd	r31, Y+4	; 0x04
    12d8:	06 a0       	ldd	r0, Z+38	; 0x26
    12da:	f7 a1       	ldd	r31, Z+39	; 0x27
    12dc:	e0 2d       	mov	r30, r0
    12de:	65 96       	adiw	r28, 0x15	; 21
    12e0:	ee af       	std	Y+62, r30	; 0x3e
    12e2:	ff af       	std	Y+63, r31	; 0x3f
    12e4:	65 97       	sbiw	r28, 0x15	; 21
    12e6:	8e 0f       	add	r24, r30
    12e8:	9f 1f       	adc	r25, r31
    12ea:	a1 1d       	adc	r26, r1
    12ec:	b1 1d       	adc	r27, r1
    12ee:	e9 81       	ldd	r30, Y+1	; 0x01
    12f0:	fa 81       	ldd	r31, Y+2	; 0x02
    12f2:	20 a5       	ldd	r18, Z+40	; 0x28
    12f4:	31 a5       	ldd	r19, Z+41	; 0x29
    12f6:	42 0f       	add	r20, r18
    12f8:	53 1f       	adc	r21, r19
    12fa:	61 1d       	adc	r22, r1
    12fc:	71 1d       	adc	r23, r1
    12fe:	eb 81       	ldd	r30, Y+3	; 0x03
    1300:	fc 81       	ldd	r31, Y+4	; 0x04
    1302:	20 a5       	ldd	r18, Z+40	; 0x28
    1304:	31 a5       	ldd	r19, Z+41	; 0x29
    1306:	82 0f       	add	r24, r18
    1308:	93 1f       	adc	r25, r19
    130a:	a1 1d       	adc	r26, r1
    130c:	b1 1d       	adc	r27, r1
    130e:	e9 81       	ldd	r30, Y+1	; 0x01
    1310:	fa 81       	ldd	r31, Y+2	; 0x02
    1312:	22 a5       	ldd	r18, Z+42	; 0x2a
    1314:	33 a5       	ldd	r19, Z+43	; 0x2b
    1316:	42 0f       	add	r20, r18
    1318:	53 1f       	adc	r21, r19
    131a:	61 1d       	adc	r22, r1
    131c:	71 1d       	adc	r23, r1
    131e:	eb 81       	ldd	r30, Y+3	; 0x03
    1320:	fc 81       	ldd	r31, Y+4	; 0x04
    1322:	22 a5       	ldd	r18, Z+42	; 0x2a
    1324:	33 a5       	ldd	r19, Z+43	; 0x2b
    1326:	82 0f       	add	r24, r18
    1328:	93 1f       	adc	r25, r19
    132a:	a1 1d       	adc	r26, r1
    132c:	b1 1d       	adc	r27, r1
    132e:	e9 81       	ldd	r30, Y+1	; 0x01
    1330:	fa 81       	ldd	r31, Y+2	; 0x02
    1332:	24 a5       	ldd	r18, Z+44	; 0x2c
    1334:	35 a5       	ldd	r19, Z+45	; 0x2d
    1336:	42 0f       	add	r20, r18
    1338:	53 1f       	adc	r21, r19
    133a:	61 1d       	adc	r22, r1
    133c:	71 1d       	adc	r23, r1
    133e:	eb 81       	ldd	r30, Y+3	; 0x03
    1340:	fc 81       	ldd	r31, Y+4	; 0x04
    1342:	24 a5       	ldd	r18, Z+44	; 0x2c
    1344:	35 a5       	ldd	r19, Z+45	; 0x2d
    1346:	82 0f       	add	r24, r18
    1348:	93 1f       	adc	r25, r19
    134a:	a1 1d       	adc	r26, r1
    134c:	b1 1d       	adc	r27, r1
    134e:	e9 81       	ldd	r30, Y+1	; 0x01
    1350:	fa 81       	ldd	r31, Y+2	; 0x02
    1352:	26 a5       	ldd	r18, Z+46	; 0x2e
    1354:	37 a5       	ldd	r19, Z+47	; 0x2f
    1356:	42 0f       	add	r20, r18
    1358:	53 1f       	adc	r21, r19
    135a:	61 1d       	adc	r22, r1
    135c:	71 1d       	adc	r23, r1
    135e:	eb 81       	ldd	r30, Y+3	; 0x03
    1360:	fc 81       	ldd	r31, Y+4	; 0x04
    1362:	26 a5       	ldd	r18, Z+46	; 0x2e
    1364:	37 a5       	ldd	r19, Z+47	; 0x2f
    1366:	82 0f       	add	r24, r18
    1368:	93 1f       	adc	r25, r19
    136a:	a1 1d       	adc	r26, r1
    136c:	b1 1d       	adc	r27, r1
    136e:	e9 81       	ldd	r30, Y+1	; 0x01
    1370:	fa 81       	ldd	r31, Y+2	; 0x02
    1372:	20 a9       	ldd	r18, Z+48	; 0x30
    1374:	31 a9       	ldd	r19, Z+49	; 0x31
    1376:	42 0f       	add	r20, r18
    1378:	53 1f       	adc	r21, r19
    137a:	61 1d       	adc	r22, r1
    137c:	71 1d       	adc	r23, r1
    137e:	eb 81       	ldd	r30, Y+3	; 0x03
    1380:	fc 81       	ldd	r31, Y+4	; 0x04
    1382:	20 a9       	ldd	r18, Z+48	; 0x30
    1384:	31 a9       	ldd	r19, Z+49	; 0x31
    1386:	82 0f       	add	r24, r18
    1388:	93 1f       	adc	r25, r19
    138a:	a1 1d       	adc	r26, r1
    138c:	b1 1d       	adc	r27, r1
    138e:	e9 81       	ldd	r30, Y+1	; 0x01
    1390:	fa 81       	ldd	r31, Y+2	; 0x02
    1392:	22 a9       	ldd	r18, Z+50	; 0x32
    1394:	33 a9       	ldd	r19, Z+51	; 0x33
    1396:	42 0f       	add	r20, r18
    1398:	53 1f       	adc	r21, r19
    139a:	61 1d       	adc	r22, r1
    139c:	71 1d       	adc	r23, r1
    139e:	eb 81       	ldd	r30, Y+3	; 0x03
    13a0:	fc 81       	ldd	r31, Y+4	; 0x04
    13a2:	22 a9       	ldd	r18, Z+50	; 0x32
    13a4:	33 a9       	ldd	r19, Z+51	; 0x33
    13a6:	82 0f       	add	r24, r18
    13a8:	93 1f       	adc	r25, r19
    13aa:	a1 1d       	adc	r26, r1
    13ac:	b1 1d       	adc	r27, r1
    13ae:	e9 81       	ldd	r30, Y+1	; 0x01
    13b0:	fa 81       	ldd	r31, Y+2	; 0x02
    13b2:	24 a9       	ldd	r18, Z+52	; 0x34
    13b4:	35 a9       	ldd	r19, Z+53	; 0x35
    13b6:	42 0f       	add	r20, r18
    13b8:	53 1f       	adc	r21, r19
    13ba:	61 1d       	adc	r22, r1
    13bc:	71 1d       	adc	r23, r1
    13be:	eb 81       	ldd	r30, Y+3	; 0x03
    13c0:	fc 81       	ldd	r31, Y+4	; 0x04
    13c2:	24 a9       	ldd	r18, Z+52	; 0x34
    13c4:	35 a9       	ldd	r19, Z+53	; 0x35
    13c6:	82 0f       	add	r24, r18
    13c8:	93 1f       	adc	r25, r19
    13ca:	a1 1d       	adc	r26, r1
    13cc:	b1 1d       	adc	r27, r1
    13ce:	e9 81       	ldd	r30, Y+1	; 0x01
    13d0:	fa 81       	ldd	r31, Y+2	; 0x02
    13d2:	26 a9       	ldd	r18, Z+54	; 0x36
    13d4:	37 a9       	ldd	r19, Z+55	; 0x37
    13d6:	42 0f       	add	r20, r18
    13d8:	53 1f       	adc	r21, r19
    13da:	61 1d       	adc	r22, r1
    13dc:	71 1d       	adc	r23, r1
    13de:	eb 81       	ldd	r30, Y+3	; 0x03
    13e0:	fc 81       	ldd	r31, Y+4	; 0x04
    13e2:	26 a9       	ldd	r18, Z+54	; 0x36
    13e4:	37 a9       	ldd	r19, Z+55	; 0x37
    13e6:	82 0f       	add	r24, r18
    13e8:	93 1f       	adc	r25, r19
    13ea:	a1 1d       	adc	r26, r1
    13ec:	b1 1d       	adc	r27, r1
    13ee:	e9 81       	ldd	r30, Y+1	; 0x01
    13f0:	fa 81       	ldd	r31, Y+2	; 0x02
    13f2:	20 ad       	ldd	r18, Z+56	; 0x38
    13f4:	31 ad       	ldd	r19, Z+57	; 0x39
    13f6:	42 0f       	add	r20, r18
    13f8:	53 1f       	adc	r21, r19
    13fa:	61 1d       	adc	r22, r1
    13fc:	71 1d       	adc	r23, r1
    13fe:	eb 81       	ldd	r30, Y+3	; 0x03
    1400:	fc 81       	ldd	r31, Y+4	; 0x04
    1402:	20 ad       	ldd	r18, Z+56	; 0x38
    1404:	31 ad       	ldd	r19, Z+57	; 0x39
    1406:	82 0f       	add	r24, r18
    1408:	93 1f       	adc	r25, r19
    140a:	a1 1d       	adc	r26, r1
    140c:	b1 1d       	adc	r27, r1
    140e:	e9 81       	ldd	r30, Y+1	; 0x01
    1410:	fa 81       	ldd	r31, Y+2	; 0x02
    1412:	22 ad       	ldd	r18, Z+58	; 0x3a
    1414:	33 ad       	ldd	r19, Z+59	; 0x3b
    1416:	42 0f       	add	r20, r18
    1418:	53 1f       	adc	r21, r19
    141a:	61 1d       	adc	r22, r1
    141c:	71 1d       	adc	r23, r1
    141e:	eb 81       	ldd	r30, Y+3	; 0x03
    1420:	fc 81       	ldd	r31, Y+4	; 0x04
    1422:	22 ad       	ldd	r18, Z+58	; 0x3a
    1424:	33 ad       	ldd	r19, Z+59	; 0x3b
    1426:	82 0f       	add	r24, r18
    1428:	93 1f       	adc	r25, r19
    142a:	a1 1d       	adc	r26, r1
    142c:	b1 1d       	adc	r27, r1
    142e:	e9 81       	ldd	r30, Y+1	; 0x01
    1430:	fa 81       	ldd	r31, Y+2	; 0x02
    1432:	24 ad       	ldd	r18, Z+60	; 0x3c
    1434:	35 ad       	ldd	r19, Z+61	; 0x3d
    1436:	42 0f       	add	r20, r18
    1438:	53 1f       	adc	r21, r19
    143a:	61 1d       	adc	r22, r1
    143c:	71 1d       	adc	r23, r1
    143e:	eb 81       	ldd	r30, Y+3	; 0x03
    1440:	fc 81       	ldd	r31, Y+4	; 0x04
    1442:	24 ad       	ldd	r18, Z+60	; 0x3c
    1444:	35 ad       	ldd	r19, Z+61	; 0x3d
    1446:	82 0f       	add	r24, r18
    1448:	93 1f       	adc	r25, r19
    144a:	a1 1d       	adc	r26, r1
    144c:	b1 1d       	adc	r27, r1
    144e:	26 ad       	ldd	r18, Z+62	; 0x3e
    1450:	37 ad       	ldd	r19, Z+63	; 0x3f
    1452:	82 0f       	add	r24, r18
    1454:	93 1f       	adc	r25, r19
    1456:	a1 1d       	adc	r26, r1
    1458:	b1 1d       	adc	r27, r1
    145a:	e9 81       	ldd	r30, Y+1	; 0x01
    145c:	fa 81       	ldd	r31, Y+2	; 0x02
    145e:	26 ad       	ldd	r18, Z+62	; 0x3e
    1460:	37 ad       	ldd	r19, Z+63	; 0x3f
    1462:	42 0f       	add	r20, r18
    1464:	53 1f       	adc	r21, r19
    1466:	61 1d       	adc	r22, r1
    1468:	71 1d       	adc	r23, r1
    146a:	24 e0       	ldi	r18, 0x04	; 4
    146c:	76 95       	lsr	r23
    146e:	67 95       	ror	r22
    1470:	57 95       	ror	r21
    1472:	47 95       	ror	r20
    1474:	2a 95       	dec	r18
    1476:	d1 f7       	brne	.-12     	; 0x146c <_Z14anim_inputDataP12fft_result_tS0_+0x5e8>
    1478:	40 93 da 22 	sts	0x22DA, r20
    147c:	50 93 db 22 	sts	0x22DB, r21
    1480:	34 e0       	ldi	r19, 0x04	; 4
    1482:	b6 95       	lsr	r27
    1484:	a7 95       	ror	r26
    1486:	97 95       	ror	r25
    1488:	87 95       	ror	r24
    148a:	3a 95       	dec	r19
    148c:	d1 f7       	brne	.-12     	; 0x1482 <_Z14anim_inputDataP12fft_result_tS0_+0x5fe>
    148e:	80 93 c6 22 	sts	0x22C6, r24
    1492:	90 93 c7 22 	sts	0x22C7, r25
    1496:	9f 01       	movw	r18, r30
    1498:	20 5c       	subi	r18, 0xC0	; 192
    149a:	3f 4f       	sbci	r19, 0xFF	; 255
    149c:	ab 80       	ldd	r10, Y+3	; 0x03
    149e:	bc 80       	ldd	r11, Y+4	; 0x04
    14a0:	f0 e4       	ldi	r31, 0x40	; 64
    14a2:	af 0e       	add	r10, r31
    14a4:	b1 1c       	adc	r11, r1
    14a6:	40 e2       	ldi	r20, 0x20	; 32
    14a8:	48 87       	std	Y+8, r20	; 0x08
    14aa:	60 e0       	ldi	r22, 0x00	; 0
    14ac:	70 e0       	ldi	r23, 0x00	; 0
    14ae:	cb 01       	movw	r24, r22
    14b0:	c1 2c       	mov	r12, r1
    14b2:	d1 2c       	mov	r13, r1
    14b4:	76 01       	movw	r14, r12
    14b6:	d9 01       	movw	r26, r18
    14b8:	f5 01       	movw	r30, r10
    14ba:	2d 91       	ld	r18, X+
    14bc:	3d 91       	ld	r19, X+
    14be:	62 0f       	add	r22, r18
    14c0:	73 1f       	adc	r23, r19
    14c2:	81 1d       	adc	r24, r1
    14c4:	91 1d       	adc	r25, r1
    14c6:	21 91       	ld	r18, Z+
    14c8:	31 91       	ld	r19, Z+
    14ca:	c2 0e       	add	r12, r18
    14cc:	d3 1e       	adc	r13, r19
    14ce:	e1 1c       	adc	r14, r1
    14d0:	f1 1c       	adc	r15, r1
    14d2:	41 50       	subi	r20, 0x01	; 1
    14d4:	91 f7       	brne	.-28     	; 0x14ba <_Z14anim_inputDataP12fft_result_tS0_+0x636>
    14d6:	48 87       	std	Y+8, r20	; 0x08
    14d8:	2c e1       	ldi	r18, 0x1C	; 28
    14da:	82 2e       	mov	r8, r18
    14dc:	91 2c       	mov	r9, r1
    14de:	a1 2c       	mov	r10, r1
    14e0:	b1 2c       	mov	r11, r1
    14e2:	a5 01       	movw	r20, r10
    14e4:	94 01       	movw	r18, r8
    14e6:	0e 94 66 16 	call	0x2ccc	; 0x2ccc <__udivmodsi4>
    14ea:	20 93 dc 22 	sts	0x22DC, r18
    14ee:	30 93 dd 22 	sts	0x22DD, r19
    14f2:	c7 01       	movw	r24, r14
    14f4:	b6 01       	movw	r22, r12
    14f6:	a5 01       	movw	r20, r10
    14f8:	94 01       	movw	r18, r8
    14fa:	0e 94 66 16 	call	0x2ccc	; 0x2ccc <__udivmodsi4>
    14fe:	20 93 c8 22 	sts	0x22C8, r18
    1502:	30 93 c9 22 	sts	0x22C9, r19
    1506:	10 92 ac 22 	sts	0x22AC, r1
    150a:	10 92 ab 22 	sts	0x22AB, r1
    150e:	8f ef       	ldi	r24, 0xFF	; 255
    1510:	80 93 a9 22 	sts	0x22A9, r24
    1514:	61 2c       	mov	r6, r1
    1516:	71 2c       	mov	r7, r1
    1518:	48 01       	movw	r8, r16
    151a:	a1 2c       	mov	r10, r1
    151c:	b1 2c       	mov	r11, r1
    151e:	1e 82       	std	Y+6, r1	; 0x06
    1520:	1d 82       	std	Y+5, r1	; 0x05
    1522:	5f ef       	ldi	r21, 0xFF	; 255
    1524:	5f 83       	std	Y+7, r21	; 0x07
    1526:	89 81       	ldd	r24, Y+1	; 0x01
    1528:	9a 81       	ldd	r25, Y+2	; 0x02
    152a:	2b 80       	ldd	r2, Y+3	; 0x03
    152c:	3c 80       	ldd	r3, Y+4	; 0x04
    152e:	ff ef       	ldi	r31, 0xFF	; 255
    1530:	e0 e0       	ldi	r30, 0x00	; 0
    1532:	cc 24       	eor	r12, r12
    1534:	ca 94       	dec	r12
    1536:	dc 2c       	mov	r13, r12
    1538:	76 01       	movw	r14, r12
    153a:	0f ef       	ldi	r16, 0xFF	; 255
    153c:	1f ef       	ldi	r17, 0xFF	; 255
    153e:	98 01       	movw	r18, r16
    1540:	69 96       	adiw	r28, 0x19	; 25
    1542:	ef af       	std	Y+63, r30	; 0x3f
    1544:	69 97       	sbiw	r28, 0x19	; 25
    1546:	67 96       	adiw	r28, 0x17	; 23
    1548:	8e af       	std	Y+62, r24	; 0x3e
    154a:	9f af       	std	Y+63, r25	; 0x3f
    154c:	67 97       	sbiw	r28, 0x17	; 23
    154e:	68 96       	adiw	r28, 0x18	; 24
    1550:	ff af       	std	Y+63, r31	; 0x3f
    1552:	68 97       	sbiw	r28, 0x18	; 24
    1554:	67 96       	adiw	r28, 0x17	; 23
    1556:	ae ad       	ldd	r26, Y+62	; 0x3e
    1558:	bf ad       	ldd	r27, Y+63	; 0x3f
    155a:	67 97       	sbiw	r28, 0x17	; 23
    155c:	8d 91       	ld	r24, X+
    155e:	9d 91       	ld	r25, X+
    1560:	67 96       	adiw	r28, 0x17	; 23
    1562:	ae af       	std	Y+62, r26	; 0x3e
    1564:	bf af       	std	Y+63, r27	; 0x3f
    1566:	67 97       	sbiw	r28, 0x17	; 23
    1568:	a0 e0       	ldi	r26, 0x00	; 0
    156a:	b0 e0       	ldi	r27, 0x00	; 0
    156c:	48 16       	cp	r4, r24
    156e:	59 06       	cpc	r5, r25
    1570:	6a 06       	cpc	r6, r26
    1572:	7b 06       	cpc	r7, r27
    1574:	30 f4       	brcc	.+12     	; 0x1582 <_Z14anim_inputDataP12fft_result_tS0_+0x6fe>
    1576:	69 96       	adiw	r28, 0x19	; 25
    1578:	ef ad       	ldd	r30, Y+63	; 0x3f
    157a:	69 97       	sbiw	r28, 0x19	; 25
    157c:	ee 83       	std	Y+6, r30	; 0x06
    157e:	2c 01       	movw	r4, r24
    1580:	3d 01       	movw	r6, r26
    1582:	f1 01       	movw	r30, r2
    1584:	41 91       	ld	r20, Z+
    1586:	51 91       	ld	r21, Z+
    1588:	1f 01       	movw	r2, r30
    158a:	60 e0       	ldi	r22, 0x00	; 0
    158c:	70 e0       	ldi	r23, 0x00	; 0
    158e:	84 16       	cp	r8, r20
    1590:	95 06       	cpc	r9, r21
    1592:	a6 06       	cpc	r10, r22
    1594:	b7 06       	cpc	r11, r23
    1596:	30 f4       	brcc	.+12     	; 0x15a4 <_Z14anim_inputDataP12fft_result_tS0_+0x720>
    1598:	69 96       	adiw	r28, 0x19	; 25
    159a:	ff ad       	ldd	r31, Y+63	; 0x3f
    159c:	69 97       	sbiw	r28, 0x19	; 25
    159e:	fd 83       	std	Y+5, r31	; 0x05
    15a0:	4a 01       	movw	r8, r20
    15a2:	5b 01       	movw	r10, r22
    15a4:	8c 15       	cp	r24, r12
    15a6:	9d 05       	cpc	r25, r13
    15a8:	ae 05       	cpc	r26, r14
    15aa:	bf 05       	cpc	r27, r15
    15ac:	40 f4       	brcc	.+16     	; 0x15be <_Z14anim_inputDataP12fft_result_tS0_+0x73a>
    15ae:	69 96       	adiw	r28, 0x19	; 25
    15b0:	ef ad       	ldd	r30, Y+63	; 0x3f
    15b2:	69 97       	sbiw	r28, 0x19	; 25
    15b4:	68 96       	adiw	r28, 0x18	; 24
    15b6:	ef af       	std	Y+63, r30	; 0x3f
    15b8:	68 97       	sbiw	r28, 0x18	; 24
    15ba:	6c 01       	movw	r12, r24
    15bc:	7d 01       	movw	r14, r26
    15be:	40 17       	cp	r20, r16
    15c0:	51 07       	cpc	r21, r17
    15c2:	62 07       	cpc	r22, r18
    15c4:	73 07       	cpc	r23, r19
    15c6:	30 f4       	brcc	.+12     	; 0x15d4 <_Z14anim_inputDataP12fft_result_tS0_+0x750>
    15c8:	69 96       	adiw	r28, 0x19	; 25
    15ca:	ff ad       	ldd	r31, Y+63	; 0x3f
    15cc:	69 97       	sbiw	r28, 0x19	; 25
    15ce:	ff 83       	std	Y+7, r31	; 0x07
    15d0:	8c 01       	movw	r16, r24
    15d2:	9d 01       	movw	r18, r26
    15d4:	69 96       	adiw	r28, 0x19	; 25
    15d6:	4f ad       	ldd	r20, Y+63	; 0x3f
    15d8:	69 97       	sbiw	r28, 0x19	; 25
    15da:	4f 5f       	subi	r20, 0xFF	; 255
    15dc:	69 96       	adiw	r28, 0x19	; 25
    15de:	4f af       	std	Y+63, r20	; 0x3f
    15e0:	69 97       	sbiw	r28, 0x19	; 25
    15e2:	40 34       	cpi	r20, 0x40	; 64
    15e4:	09 f0       	breq	.+2      	; 0x15e8 <_Z14anim_inputDataP12fft_result_tS0_+0x764>
    15e6:	b6 cf       	rjmp	.-148    	; 0x1554 <_Z14anim_inputDataP12fft_result_tS0_+0x6d0>
    15e8:	68 96       	adiw	r28, 0x18	; 24
    15ea:	ff ad       	ldd	r31, Y+63	; 0x3f
    15ec:	68 97       	sbiw	r28, 0x18	; 24
    15ee:	5e 81       	ldd	r21, Y+6	; 0x06
    15f0:	50 93 ac 22 	sts	0x22AC, r21
    15f4:	8d 81       	ldd	r24, Y+5	; 0x05
    15f6:	80 93 ab 22 	sts	0x22AB, r24
    15fa:	f0 93 aa 22 	sts	0x22AA, r31
    15fe:	9f 81       	ldd	r25, Y+7	; 0x07
    1600:	90 93 a9 22 	sts	0x22A9, r25
    1604:	a9 81       	ldd	r26, Y+1	; 0x01
    1606:	ba 81       	ldd	r27, Y+2	; 0x02
    1608:	ae 57       	subi	r26, 0x7E	; 126
    160a:	bf 4f       	sbci	r27, 0xFF	; 255
    160c:	89 81       	ldd	r24, Y+1	; 0x01
    160e:	9a 81       	ldd	r25, Y+2	; 0x02
    1610:	80 58       	subi	r24, 0x80	; 128
    1612:	9f 4f       	sbci	r25, 0xFF	; 255
    1614:	ed 90       	ld	r14, X+
    1616:	fc 90       	ld	r15, X
    1618:	dc 01       	movw	r26, r24
    161a:	8d 91       	ld	r24, X+
    161c:	9c 91       	ld	r25, X
    161e:	e8 1a       	sub	r14, r24
    1620:	f9 0a       	sbc	r15, r25
    1622:	e0 92 b4 22 	sts	0x22B4, r14
    1626:	f0 92 b5 22 	sts	0x22B5, r15
    162a:	ab 81       	ldd	r26, Y+3	; 0x03
    162c:	bc 81       	ldd	r27, Y+4	; 0x04
    162e:	ae 57       	subi	r26, 0x7E	; 126
    1630:	bf 4f       	sbci	r27, 0xFF	; 255
    1632:	8b 81       	ldd	r24, Y+3	; 0x03
    1634:	9c 81       	ldd	r25, Y+4	; 0x04
    1636:	80 58       	subi	r24, 0x80	; 128
    1638:	9f 4f       	sbci	r25, 0xFF	; 255
    163a:	cd 90       	ld	r12, X+
    163c:	dc 90       	ld	r13, X
    163e:	fc 01       	movw	r30, r24
    1640:	80 81       	ld	r24, Z
    1642:	91 81       	ldd	r25, Z+1	; 0x01
    1644:	c8 1a       	sub	r12, r24
    1646:	d9 0a       	sbc	r13, r25
    1648:	c0 92 b2 22 	sts	0x22B2, r12
    164c:	d0 92 b3 22 	sts	0x22B3, r13
    1650:	ab 81       	ldd	r26, Y+3	; 0x03
    1652:	bc 81       	ldd	r27, Y+4	; 0x04
    1654:	4d 91       	ld	r20, X+
    1656:	5c 91       	ld	r21, X
    1658:	e9 81       	ldd	r30, Y+1	; 0x01
    165a:	fa 81       	ldd	r31, Y+2	; 0x02
    165c:	20 81       	ld	r18, Z
    165e:	31 81       	ldd	r19, Z+1	; 0x01
    1660:	42 0f       	add	r20, r18
    1662:	53 1f       	adc	r21, r19
    1664:	56 95       	lsr	r21
    1666:	47 95       	ror	r20
    1668:	6b 85       	ldd	r22, Y+11	; 0x0b
    166a:	7c 85       	ldd	r23, Y+12	; 0x0c
    166c:	29 85       	ldd	r18, Y+9	; 0x09
    166e:	3a 85       	ldd	r19, Y+10	; 0x0a
    1670:	62 0f       	add	r22, r18
    1672:	73 1f       	adc	r23, r19
    1674:	76 95       	lsr	r23
    1676:	67 95       	ror	r22
    1678:	80 e0       	ldi	r24, 0x00	; 0
    167a:	90 e0       	ldi	r25, 0x00	; 0
    167c:	64 0f       	add	r22, r20
    167e:	75 1f       	adc	r23, r21
    1680:	81 1d       	adc	r24, r1
    1682:	91 1d       	adc	r25, r1
    1684:	50 90 48 22 	lds	r5, 0x2248
    1688:	85 2c       	mov	r8, r5
    168a:	91 2c       	mov	r9, r1
    168c:	2f 85       	ldd	r18, Y+15	; 0x0f
    168e:	38 89       	ldd	r19, Y+16	; 0x10
    1690:	4d 85       	ldd	r20, Y+13	; 0x0d
    1692:	5e 85       	ldd	r21, Y+14	; 0x0e
    1694:	24 0f       	add	r18, r20
    1696:	35 1f       	adc	r19, r21
    1698:	36 95       	lsr	r19
    169a:	27 95       	ror	r18
    169c:	62 0f       	add	r22, r18
    169e:	73 1f       	adc	r23, r19
    16a0:	81 1d       	adc	r24, r1
    16a2:	91 1d       	adc	r25, r1
    16a4:	23 e0       	ldi	r18, 0x03	; 3
    16a6:	30 e0       	ldi	r19, 0x00	; 0
    16a8:	40 e0       	ldi	r20, 0x00	; 0
    16aa:	50 e0       	ldi	r21, 0x00	; 0
    16ac:	0e 94 66 16 	call	0x2ccc	; 0x2ccc <__udivmodsi4>
    16b0:	39 01       	movw	r6, r18
    16b2:	54 01       	movw	r10, r8
    16b4:	aa 0c       	add	r10, r10
    16b6:	bb 1c       	adc	r11, r11
    16b8:	f5 01       	movw	r30, r10
    16ba:	e7 57       	subi	r30, 0x77	; 119
    16bc:	fd 4d       	sbci	r31, 0xDD	; 221
    16be:	20 83       	st	Z, r18
    16c0:	31 83       	std	Z+1, r19	; 0x01
    16c2:	2b 89       	ldd	r18, Y+19	; 0x13
    16c4:	3c 89       	ldd	r19, Y+20	; 0x14
    16c6:	89 89       	ldd	r24, Y+17	; 0x11
    16c8:	9a 89       	ldd	r25, Y+18	; 0x12
    16ca:	28 0f       	add	r18, r24
    16cc:	39 1f       	adc	r19, r25
    16ce:	36 95       	lsr	r19
    16d0:	27 95       	ror	r18
    16d2:	6f 89       	ldd	r22, Y+23	; 0x17
    16d4:	78 8d       	ldd	r23, Y+24	; 0x18
    16d6:	ad 89       	ldd	r26, Y+21	; 0x15
    16d8:	be 89       	ldd	r27, Y+22	; 0x16
    16da:	6a 0f       	add	r22, r26
    16dc:	7b 1f       	adc	r23, r27
    16de:	76 95       	lsr	r23
    16e0:	67 95       	ror	r22
    16e2:	80 e0       	ldi	r24, 0x00	; 0
    16e4:	90 e0       	ldi	r25, 0x00	; 0
    16e6:	62 0f       	add	r22, r18
    16e8:	73 1f       	adc	r23, r19
    16ea:	81 1d       	adc	r24, r1
    16ec:	91 1d       	adc	r25, r1
    16ee:	2b 8d       	ldd	r18, Y+27	; 0x1b
    16f0:	3c 8d       	ldd	r19, Y+28	; 0x1c
    16f2:	e9 8d       	ldd	r30, Y+25	; 0x19
    16f4:	fa 8d       	ldd	r31, Y+26	; 0x1a
    16f6:	2e 0f       	add	r18, r30
    16f8:	3f 1f       	adc	r19, r31
    16fa:	36 95       	lsr	r19
    16fc:	27 95       	ror	r18
    16fe:	62 0f       	add	r22, r18
    1700:	73 1f       	adc	r23, r19
    1702:	81 1d       	adc	r24, r1
    1704:	91 1d       	adc	r25, r1
    1706:	2f 8d       	ldd	r18, Y+31	; 0x1f
    1708:	38 a1       	ldd	r19, Y+32	; 0x20
    170a:	4d 8d       	ldd	r20, Y+29	; 0x1d
    170c:	5e 8d       	ldd	r21, Y+30	; 0x1e
    170e:	24 0f       	add	r18, r20
    1710:	35 1f       	adc	r19, r21
    1712:	36 95       	lsr	r19
    1714:	27 95       	ror	r18
    1716:	62 0f       	add	r22, r18
    1718:	73 1f       	adc	r23, r19
    171a:	81 1d       	adc	r24, r1
    171c:	91 1d       	adc	r25, r1
    171e:	2b a1       	ldd	r18, Y+35	; 0x23
    1720:	3c a1       	ldd	r19, Y+36	; 0x24
    1722:	a9 a1       	ldd	r26, Y+33	; 0x21
    1724:	ba a1       	ldd	r27, Y+34	; 0x22
    1726:	2a 0f       	add	r18, r26
    1728:	3b 1f       	adc	r19, r27
    172a:	36 95       	lsr	r19
    172c:	27 95       	ror	r18
    172e:	62 0f       	add	r22, r18
    1730:	73 1f       	adc	r23, r19
    1732:	81 1d       	adc	r24, r1
    1734:	91 1d       	adc	r25, r1
    1736:	2f a1       	ldd	r18, Y+39	; 0x27
    1738:	38 a5       	ldd	r19, Y+40	; 0x28
    173a:	ed a1       	ldd	r30, Y+37	; 0x25
    173c:	fe a1       	ldd	r31, Y+38	; 0x26
    173e:	2e 0f       	add	r18, r30
    1740:	3f 1f       	adc	r19, r31
    1742:	36 95       	lsr	r19
    1744:	27 95       	ror	r18
    1746:	62 0f       	add	r22, r18
    1748:	73 1f       	adc	r23, r19
    174a:	81 1d       	adc	r24, r1
    174c:	91 1d       	adc	r25, r1
    174e:	2b a5       	ldd	r18, Y+43	; 0x2b
    1750:	3c a5       	ldd	r19, Y+44	; 0x2c
    1752:	49 a5       	ldd	r20, Y+41	; 0x29
    1754:	5a a5       	ldd	r21, Y+42	; 0x2a
    1756:	24 0f       	add	r18, r20
    1758:	35 1f       	adc	r19, r21
    175a:	36 95       	lsr	r19
    175c:	27 95       	ror	r18
    175e:	62 0f       	add	r22, r18
    1760:	73 1f       	adc	r23, r19
    1762:	81 1d       	adc	r24, r1
    1764:	91 1d       	adc	r25, r1
    1766:	2f a5       	ldd	r18, Y+47	; 0x2f
    1768:	38 a9       	ldd	r19, Y+48	; 0x30
    176a:	ad a5       	ldd	r26, Y+45	; 0x2d
    176c:	be a5       	ldd	r27, Y+46	; 0x2e
    176e:	2a 0f       	add	r18, r26
    1770:	3b 1f       	adc	r19, r27
    1772:	36 95       	lsr	r19
    1774:	27 95       	ror	r18
    1776:	62 0f       	add	r22, r18
    1778:	73 1f       	adc	r23, r19
    177a:	81 1d       	adc	r24, r1
    177c:	91 1d       	adc	r25, r1
    177e:	2b a9       	ldd	r18, Y+51	; 0x33
    1780:	3c a9       	ldd	r19, Y+52	; 0x34
    1782:	e9 a9       	ldd	r30, Y+49	; 0x31
    1784:	fa a9       	ldd	r31, Y+50	; 0x32
    1786:	2e 0f       	add	r18, r30
    1788:	3f 1f       	adc	r19, r31
    178a:	36 95       	lsr	r19
    178c:	27 95       	ror	r18
    178e:	62 0f       	add	r22, r18
    1790:	73 1f       	adc	r23, r19
    1792:	81 1d       	adc	r24, r1
    1794:	91 1d       	adc	r25, r1
    1796:	2f a9       	ldd	r18, Y+55	; 0x37
    1798:	38 ad       	ldd	r19, Y+56	; 0x38
    179a:	4d a9       	ldd	r20, Y+53	; 0x35
    179c:	5e a9       	ldd	r21, Y+54	; 0x36
    179e:	24 0f       	add	r18, r20
    17a0:	35 1f       	adc	r19, r21
    17a2:	36 95       	lsr	r19
    17a4:	27 95       	ror	r18
    17a6:	62 0f       	add	r22, r18
    17a8:	73 1f       	adc	r23, r19
    17aa:	81 1d       	adc	r24, r1
    17ac:	91 1d       	adc	r25, r1
    17ae:	2b ad       	ldd	r18, Y+59	; 0x3b
    17b0:	3c ad       	ldd	r19, Y+60	; 0x3c
    17b2:	a9 ad       	ldd	r26, Y+57	; 0x39
    17b4:	ba ad       	ldd	r27, Y+58	; 0x3a
    17b6:	2a 0f       	add	r18, r26
    17b8:	3b 1f       	adc	r19, r27
    17ba:	36 95       	lsr	r19
    17bc:	27 95       	ror	r18
    17be:	62 0f       	add	r22, r18
    17c0:	73 1f       	adc	r23, r19
    17c2:	81 1d       	adc	r24, r1
    17c4:	91 1d       	adc	r25, r1
    17c6:	21 96       	adiw	r28, 0x01	; 1
    17c8:	2e ad       	ldd	r18, Y+62	; 0x3e
    17ca:	3f ad       	ldd	r19, Y+63	; 0x3f
    17cc:	21 97       	sbiw	r28, 0x01	; 1
    17ce:	ed ad       	ldd	r30, Y+61	; 0x3d
    17d0:	fe ad       	ldd	r31, Y+62	; 0x3e
    17d2:	2e 0f       	add	r18, r30
    17d4:	3f 1f       	adc	r19, r31
    17d6:	36 95       	lsr	r19
    17d8:	27 95       	ror	r18
    17da:	62 0f       	add	r22, r18
    17dc:	73 1f       	adc	r23, r19
    17de:	81 1d       	adc	r24, r1
    17e0:	91 1d       	adc	r25, r1
    17e2:	25 96       	adiw	r28, 0x05	; 5
    17e4:	2e ad       	ldd	r18, Y+62	; 0x3e
    17e6:	3f ad       	ldd	r19, Y+63	; 0x3f
    17e8:	25 97       	sbiw	r28, 0x05	; 5
    17ea:	23 96       	adiw	r28, 0x03	; 3
    17ec:	4e ad       	ldd	r20, Y+62	; 0x3e
    17ee:	5f ad       	ldd	r21, Y+63	; 0x3f
    17f0:	23 97       	sbiw	r28, 0x03	; 3
    17f2:	24 0f       	add	r18, r20
    17f4:	35 1f       	adc	r19, r21
    17f6:	36 95       	lsr	r19
    17f8:	27 95       	ror	r18
    17fa:	62 0f       	add	r22, r18
    17fc:	73 1f       	adc	r23, r19
    17fe:	81 1d       	adc	r24, r1
    1800:	91 1d       	adc	r25, r1
    1802:	29 96       	adiw	r28, 0x09	; 9
    1804:	2e ad       	ldd	r18, Y+62	; 0x3e
    1806:	3f ad       	ldd	r19, Y+63	; 0x3f
    1808:	29 97       	sbiw	r28, 0x09	; 9
    180a:	27 96       	adiw	r28, 0x07	; 7
    180c:	ae ad       	ldd	r26, Y+62	; 0x3e
    180e:	bf ad       	ldd	r27, Y+63	; 0x3f
    1810:	27 97       	sbiw	r28, 0x07	; 7
    1812:	2a 0f       	add	r18, r26
    1814:	3b 1f       	adc	r19, r27
    1816:	36 95       	lsr	r19
    1818:	27 95       	ror	r18
    181a:	62 0f       	add	r22, r18
    181c:	73 1f       	adc	r23, r19
    181e:	81 1d       	adc	r24, r1
    1820:	91 1d       	adc	r25, r1
    1822:	2d 96       	adiw	r28, 0x0d	; 13
    1824:	2e ad       	ldd	r18, Y+62	; 0x3e
    1826:	3f ad       	ldd	r19, Y+63	; 0x3f
    1828:	2d 97       	sbiw	r28, 0x0d	; 13
    182a:	2b 96       	adiw	r28, 0x0b	; 11
    182c:	ee ad       	ldd	r30, Y+62	; 0x3e
    182e:	ff ad       	ldd	r31, Y+63	; 0x3f
    1830:	2b 97       	sbiw	r28, 0x0b	; 11
    1832:	2e 0f       	add	r18, r30
    1834:	3f 1f       	adc	r19, r31
    1836:	36 95       	lsr	r19
    1838:	27 95       	ror	r18
    183a:	62 0f       	add	r22, r18
    183c:	73 1f       	adc	r23, r19
    183e:	81 1d       	adc	r24, r1
    1840:	91 1d       	adc	r25, r1
    1842:	61 96       	adiw	r28, 0x11	; 17
    1844:	2e ad       	ldd	r18, Y+62	; 0x3e
    1846:	3f ad       	ldd	r19, Y+63	; 0x3f
    1848:	61 97       	sbiw	r28, 0x11	; 17
    184a:	2f 96       	adiw	r28, 0x0f	; 15
    184c:	4e ad       	ldd	r20, Y+62	; 0x3e
    184e:	5f ad       	ldd	r21, Y+63	; 0x3f
    1850:	2f 97       	sbiw	r28, 0x0f	; 15
    1852:	24 0f       	add	r18, r20
    1854:	35 1f       	adc	r19, r21
    1856:	36 95       	lsr	r19
    1858:	27 95       	ror	r18
    185a:	62 0f       	add	r22, r18
    185c:	73 1f       	adc	r23, r19
    185e:	81 1d       	adc	r24, r1
    1860:	91 1d       	adc	r25, r1
    1862:	65 96       	adiw	r28, 0x15	; 21
    1864:	2e ad       	ldd	r18, Y+62	; 0x3e
    1866:	3f ad       	ldd	r19, Y+63	; 0x3f
    1868:	65 97       	sbiw	r28, 0x15	; 21
    186a:	63 96       	adiw	r28, 0x13	; 19
    186c:	ae ad       	ldd	r26, Y+62	; 0x3e
    186e:	bf ad       	ldd	r27, Y+63	; 0x3f
    1870:	63 97       	sbiw	r28, 0x13	; 19
    1872:	2a 0f       	add	r18, r26
    1874:	3b 1f       	adc	r19, r27
    1876:	36 95       	lsr	r19
    1878:	27 95       	ror	r18
    187a:	62 0f       	add	r22, r18
    187c:	73 1f       	adc	r23, r19
    187e:	81 1d       	adc	r24, r1
    1880:	91 1d       	adc	r25, r1
    1882:	21 e1       	ldi	r18, 0x11	; 17
    1884:	30 e0       	ldi	r19, 0x00	; 0
    1886:	40 e0       	ldi	r20, 0x00	; 0
    1888:	50 e0       	ldi	r21, 0x00	; 0
    188a:	0e 94 66 16 	call	0x2ccc	; 0x2ccc <__udivmodsi4>
    188e:	89 01       	movw	r16, r18
    1890:	f5 01       	movw	r30, r10
    1892:	e7 59       	subi	r30, 0x97	; 151
    1894:	fd 4d       	sbci	r31, 0xDD	; 221
    1896:	20 83       	st	Z, r18
    1898:	31 83       	std	Z+1, r19	; 0x01
    189a:	a9 81       	ldd	r26, Y+1	; 0x01
    189c:	ba 81       	ldd	r27, Y+2	; 0x02
    189e:	98 96       	adiw	r26, 0x28	; 40
    18a0:	2b 81       	ldd	r18, Y+3	; 0x03
    18a2:	3c 81       	ldd	r19, Y+4	; 0x04
    18a4:	28 5d       	subi	r18, 0xD8	; 216
    18a6:	3f 4f       	sbci	r19, 0xFF	; 255
    18a8:	e4 e1       	ldi	r30, 0x14	; 20
    18aa:	60 e0       	ldi	r22, 0x00	; 0
    18ac:	70 e0       	ldi	r23, 0x00	; 0
    18ae:	cb 01       	movw	r24, r22
    18b0:	ab 01       	movw	r20, r22
    18b2:	bc 01       	movw	r22, r24
    18b4:	4e 2e       	mov	r4, r30
    18b6:	f9 01       	movw	r30, r18
    18b8:	2d 91       	ld	r18, X+
    18ba:	3d 91       	ld	r19, X+
    18bc:	81 91       	ld	r24, Z+
    18be:	91 91       	ld	r25, Z+
    18c0:	82 0f       	add	r24, r18
    18c2:	93 1f       	adc	r25, r19
    18c4:	96 95       	lsr	r25
    18c6:	87 95       	ror	r24
    18c8:	48 0f       	add	r20, r24
    18ca:	59 1f       	adc	r21, r25
    18cc:	61 1d       	adc	r22, r1
    18ce:	71 1d       	adc	r23, r1
    18d0:	43 94       	inc	r4
    18d2:	2f e3       	ldi	r18, 0x3F	; 63
    18d4:	42 12       	cpse	r4, r18
    18d6:	f0 cf       	rjmp	.-32     	; 0x18b8 <_Z14anim_inputDataP12fft_result_tS0_+0xa34>
    18d8:	cb 01       	movw	r24, r22
    18da:	ba 01       	movw	r22, r20
    18dc:	2b e2       	ldi	r18, 0x2B	; 43
    18de:	30 e0       	ldi	r19, 0x00	; 0
    18e0:	40 e0       	ldi	r20, 0x00	; 0
    18e2:	50 e0       	ldi	r21, 0x00	; 0
    18e4:	0e 94 66 16 	call	0x2ccc	; 0x2ccc <__udivmodsi4>
    18e8:	19 01       	movw	r2, r18
    18ea:	f5 01       	movw	r30, r10
    18ec:	e7 5b       	subi	r30, 0xB7	; 183
    18ee:	fd 4d       	sbci	r31, 0xDD	; 221
    18f0:	20 83       	st	Z, r18
    18f2:	31 83       	std	Z+1, r19	; 0x01
    18f4:	50 92 47 22 	sts	0x2247, r5
    18f8:	3f ef       	ldi	r19, 0xFF	; 255
    18fa:	83 1a       	sub	r8, r19
    18fc:	93 0a       	sbc	r9, r19
    18fe:	4f e0       	ldi	r20, 0x0F	; 15
    1900:	84 22       	and	r8, r20
    1902:	99 24       	eor	r9, r9
    1904:	80 92 48 22 	sts	0x2248, r8
    1908:	20 91 ca 22 	lds	r18, 0x22CA
    190c:	30 91 cb 22 	lds	r19, 0x22CB
    1910:	80 91 1b 22 	lds	r24, 0x221B
    1914:	90 91 1c 22 	lds	r25, 0x221C
    1918:	82 17       	cp	r24, r18
    191a:	93 07       	cpc	r25, r19
    191c:	08 f4       	brcc	.+2      	; 0x1920 <_Z14anim_inputDataP12fft_result_tS0_+0xa9c>
    191e:	38 c4       	rjmp	.+2160   	; 0x2190 <_Z14anim_inputDataP12fft_result_tS0_+0x130c>
    1920:	10 92 ca 22 	sts	0x22CA, r1
    1924:	10 92 cb 22 	sts	0x22CB, r1
    1928:	20 91 b6 22 	lds	r18, 0x22B6
    192c:	30 91 b7 22 	lds	r19, 0x22B7
    1930:	80 91 2f 22 	lds	r24, 0x222F
    1934:	90 91 30 22 	lds	r25, 0x2230
    1938:	82 17       	cp	r24, r18
    193a:	93 07       	cpc	r25, r19
    193c:	08 f4       	brcc	.+2      	; 0x1940 <_Z14anim_inputDataP12fft_result_tS0_+0xabc>
    193e:	21 c4       	rjmp	.+2114   	; 0x2182 <_Z14anim_inputDataP12fft_result_tS0_+0x12fe>
    1940:	10 92 b6 22 	sts	0x22B6, r1
    1944:	10 92 b7 22 	sts	0x22B7, r1
    1948:	20 91 cc 22 	lds	r18, 0x22CC
    194c:	30 91 cd 22 	lds	r19, 0x22CD
    1950:	80 91 1d 22 	lds	r24, 0x221D
    1954:	90 91 1e 22 	lds	r25, 0x221E
    1958:	82 17       	cp	r24, r18
    195a:	93 07       	cpc	r25, r19
    195c:	08 f4       	brcc	.+2      	; 0x1960 <_Z14anim_inputDataP12fft_result_tS0_+0xadc>
    195e:	0a c4       	rjmp	.+2068   	; 0x2174 <_Z14anim_inputDataP12fft_result_tS0_+0x12f0>
    1960:	10 92 cc 22 	sts	0x22CC, r1
    1964:	10 92 cd 22 	sts	0x22CD, r1
    1968:	20 91 b8 22 	lds	r18, 0x22B8
    196c:	30 91 b9 22 	lds	r19, 0x22B9
    1970:	80 91 31 22 	lds	r24, 0x2231
    1974:	90 91 32 22 	lds	r25, 0x2232
    1978:	82 17       	cp	r24, r18
    197a:	93 07       	cpc	r25, r19
    197c:	08 f4       	brcc	.+2      	; 0x1980 <_Z14anim_inputDataP12fft_result_tS0_+0xafc>
    197e:	f3 c3       	rjmp	.+2022   	; 0x2166 <_Z14anim_inputDataP12fft_result_tS0_+0x12e2>
    1980:	10 92 b8 22 	sts	0x22B8, r1
    1984:	10 92 b9 22 	sts	0x22B9, r1
    1988:	20 91 ce 22 	lds	r18, 0x22CE
    198c:	30 91 cf 22 	lds	r19, 0x22CF
    1990:	80 91 1f 22 	lds	r24, 0x221F
    1994:	90 91 20 22 	lds	r25, 0x2220
    1998:	82 17       	cp	r24, r18
    199a:	93 07       	cpc	r25, r19
    199c:	08 f4       	brcc	.+2      	; 0x19a0 <_Z14anim_inputDataP12fft_result_tS0_+0xb1c>
    199e:	dc c3       	rjmp	.+1976   	; 0x2158 <_Z14anim_inputDataP12fft_result_tS0_+0x12d4>
    19a0:	10 92 ce 22 	sts	0x22CE, r1
    19a4:	10 92 cf 22 	sts	0x22CF, r1
    19a8:	20 91 ba 22 	lds	r18, 0x22BA
    19ac:	30 91 bb 22 	lds	r19, 0x22BB
    19b0:	80 91 33 22 	lds	r24, 0x2233
    19b4:	90 91 34 22 	lds	r25, 0x2234
    19b8:	82 17       	cp	r24, r18
    19ba:	93 07       	cpc	r25, r19
    19bc:	08 f4       	brcc	.+2      	; 0x19c0 <_Z14anim_inputDataP12fft_result_tS0_+0xb3c>
    19be:	c5 c3       	rjmp	.+1930   	; 0x214a <_Z14anim_inputDataP12fft_result_tS0_+0x12c6>
    19c0:	10 92 ba 22 	sts	0x22BA, r1
    19c4:	10 92 bb 22 	sts	0x22BB, r1
    19c8:	20 91 d0 22 	lds	r18, 0x22D0
    19cc:	30 91 d1 22 	lds	r19, 0x22D1
    19d0:	80 91 21 22 	lds	r24, 0x2221
    19d4:	90 91 22 22 	lds	r25, 0x2222
    19d8:	82 17       	cp	r24, r18
    19da:	93 07       	cpc	r25, r19
    19dc:	08 f4       	brcc	.+2      	; 0x19e0 <_Z14anim_inputDataP12fft_result_tS0_+0xb5c>
    19de:	ae c3       	rjmp	.+1884   	; 0x213c <_Z14anim_inputDataP12fft_result_tS0_+0x12b8>
    19e0:	10 92 d0 22 	sts	0x22D0, r1
    19e4:	10 92 d1 22 	sts	0x22D1, r1
    19e8:	20 91 bc 22 	lds	r18, 0x22BC
    19ec:	30 91 bd 22 	lds	r19, 0x22BD
    19f0:	80 91 35 22 	lds	r24, 0x2235
    19f4:	90 91 36 22 	lds	r25, 0x2236
    19f8:	82 17       	cp	r24, r18
    19fa:	93 07       	cpc	r25, r19
    19fc:	08 f4       	brcc	.+2      	; 0x1a00 <_Z14anim_inputDataP12fft_result_tS0_+0xb7c>
    19fe:	97 c3       	rjmp	.+1838   	; 0x212e <_Z14anim_inputDataP12fft_result_tS0_+0x12aa>
    1a00:	10 92 bc 22 	sts	0x22BC, r1
    1a04:	10 92 bd 22 	sts	0x22BD, r1
    1a08:	20 91 d2 22 	lds	r18, 0x22D2
    1a0c:	30 91 d3 22 	lds	r19, 0x22D3
    1a10:	80 91 23 22 	lds	r24, 0x2223
    1a14:	90 91 24 22 	lds	r25, 0x2224
    1a18:	82 17       	cp	r24, r18
    1a1a:	93 07       	cpc	r25, r19
    1a1c:	08 f4       	brcc	.+2      	; 0x1a20 <_Z14anim_inputDataP12fft_result_tS0_+0xb9c>
    1a1e:	80 c3       	rjmp	.+1792   	; 0x2120 <_Z14anim_inputDataP12fft_result_tS0_+0x129c>
    1a20:	10 92 d2 22 	sts	0x22D2, r1
    1a24:	10 92 d3 22 	sts	0x22D3, r1
    1a28:	20 91 be 22 	lds	r18, 0x22BE
    1a2c:	30 91 bf 22 	lds	r19, 0x22BF
    1a30:	80 91 37 22 	lds	r24, 0x2237
    1a34:	90 91 38 22 	lds	r25, 0x2238
    1a38:	82 17       	cp	r24, r18
    1a3a:	93 07       	cpc	r25, r19
    1a3c:	08 f4       	brcc	.+2      	; 0x1a40 <_Z14anim_inputDataP12fft_result_tS0_+0xbbc>
    1a3e:	69 c3       	rjmp	.+1746   	; 0x2112 <_Z14anim_inputDataP12fft_result_tS0_+0x128e>
    1a40:	10 92 be 22 	sts	0x22BE, r1
    1a44:	10 92 bf 22 	sts	0x22BF, r1
    1a48:	20 91 d4 22 	lds	r18, 0x22D4
    1a4c:	30 91 d5 22 	lds	r19, 0x22D5
    1a50:	80 91 25 22 	lds	r24, 0x2225
    1a54:	90 91 26 22 	lds	r25, 0x2226
    1a58:	82 17       	cp	r24, r18
    1a5a:	93 07       	cpc	r25, r19
    1a5c:	08 f4       	brcc	.+2      	; 0x1a60 <_Z14anim_inputDataP12fft_result_tS0_+0xbdc>
    1a5e:	52 c3       	rjmp	.+1700   	; 0x2104 <_Z14anim_inputDataP12fft_result_tS0_+0x1280>
    1a60:	10 92 d4 22 	sts	0x22D4, r1
    1a64:	10 92 d5 22 	sts	0x22D5, r1
    1a68:	20 91 c0 22 	lds	r18, 0x22C0
    1a6c:	30 91 c1 22 	lds	r19, 0x22C1
    1a70:	80 91 39 22 	lds	r24, 0x2239
    1a74:	90 91 3a 22 	lds	r25, 0x223A
    1a78:	82 17       	cp	r24, r18
    1a7a:	93 07       	cpc	r25, r19
    1a7c:	08 f4       	brcc	.+2      	; 0x1a80 <_Z14anim_inputDataP12fft_result_tS0_+0xbfc>
    1a7e:	3b c3       	rjmp	.+1654   	; 0x20f6 <_Z14anim_inputDataP12fft_result_tS0_+0x1272>
    1a80:	10 92 c0 22 	sts	0x22C0, r1
    1a84:	10 92 c1 22 	sts	0x22C1, r1
    1a88:	20 91 d6 22 	lds	r18, 0x22D6
    1a8c:	30 91 d7 22 	lds	r19, 0x22D7
    1a90:	80 91 27 22 	lds	r24, 0x2227
    1a94:	90 91 28 22 	lds	r25, 0x2228
    1a98:	82 17       	cp	r24, r18
    1a9a:	93 07       	cpc	r25, r19
    1a9c:	08 f4       	brcc	.+2      	; 0x1aa0 <_Z14anim_inputDataP12fft_result_tS0_+0xc1c>
    1a9e:	24 c3       	rjmp	.+1608   	; 0x20e8 <_Z14anim_inputDataP12fft_result_tS0_+0x1264>
    1aa0:	10 92 d6 22 	sts	0x22D6, r1
    1aa4:	10 92 d7 22 	sts	0x22D7, r1
    1aa8:	20 91 c2 22 	lds	r18, 0x22C2
    1aac:	30 91 c3 22 	lds	r19, 0x22C3
    1ab0:	80 91 3b 22 	lds	r24, 0x223B
    1ab4:	90 91 3c 22 	lds	r25, 0x223C
    1ab8:	82 17       	cp	r24, r18
    1aba:	93 07       	cpc	r25, r19
    1abc:	08 f4       	brcc	.+2      	; 0x1ac0 <_Z14anim_inputDataP12fft_result_tS0_+0xc3c>
    1abe:	0d c3       	rjmp	.+1562   	; 0x20da <_Z14anim_inputDataP12fft_result_tS0_+0x1256>
    1ac0:	10 92 c2 22 	sts	0x22C2, r1
    1ac4:	10 92 c3 22 	sts	0x22C3, r1
    1ac8:	20 91 d8 22 	lds	r18, 0x22D8
    1acc:	30 91 d9 22 	lds	r19, 0x22D9
    1ad0:	80 91 29 22 	lds	r24, 0x2229
    1ad4:	90 91 2a 22 	lds	r25, 0x222A
    1ad8:	82 17       	cp	r24, r18
    1ada:	93 07       	cpc	r25, r19
    1adc:	08 f4       	brcc	.+2      	; 0x1ae0 <_Z14anim_inputDataP12fft_result_tS0_+0xc5c>
    1ade:	f6 c2       	rjmp	.+1516   	; 0x20cc <_Z14anim_inputDataP12fft_result_tS0_+0x1248>
    1ae0:	10 92 d8 22 	sts	0x22D8, r1
    1ae4:	10 92 d9 22 	sts	0x22D9, r1
    1ae8:	20 91 c4 22 	lds	r18, 0x22C4
    1aec:	30 91 c5 22 	lds	r19, 0x22C5
    1af0:	80 91 3d 22 	lds	r24, 0x223D
    1af4:	90 91 3e 22 	lds	r25, 0x223E
    1af8:	82 17       	cp	r24, r18
    1afa:	93 07       	cpc	r25, r19
    1afc:	08 f4       	brcc	.+2      	; 0x1b00 <_Z14anim_inputDataP12fft_result_tS0_+0xc7c>
    1afe:	df c2       	rjmp	.+1470   	; 0x20be <_Z14anim_inputDataP12fft_result_tS0_+0x123a>
    1b00:	10 92 c4 22 	sts	0x22C4, r1
    1b04:	10 92 c5 22 	sts	0x22C5, r1
    1b08:	20 91 da 22 	lds	r18, 0x22DA
    1b0c:	30 91 db 22 	lds	r19, 0x22DB
    1b10:	80 91 2b 22 	lds	r24, 0x222B
    1b14:	90 91 2c 22 	lds	r25, 0x222C
    1b18:	82 17       	cp	r24, r18
    1b1a:	93 07       	cpc	r25, r19
    1b1c:	08 f4       	brcc	.+2      	; 0x1b20 <_Z14anim_inputDataP12fft_result_tS0_+0xc9c>
    1b1e:	c8 c2       	rjmp	.+1424   	; 0x20b0 <_Z14anim_inputDataP12fft_result_tS0_+0x122c>
    1b20:	10 92 da 22 	sts	0x22DA, r1
    1b24:	10 92 db 22 	sts	0x22DB, r1
    1b28:	20 91 c6 22 	lds	r18, 0x22C6
    1b2c:	30 91 c7 22 	lds	r19, 0x22C7
    1b30:	80 91 3f 22 	lds	r24, 0x223F
    1b34:	90 91 40 22 	lds	r25, 0x2240
    1b38:	82 17       	cp	r24, r18
    1b3a:	93 07       	cpc	r25, r19
    1b3c:	08 f4       	brcc	.+2      	; 0x1b40 <_Z14anim_inputDataP12fft_result_tS0_+0xcbc>
    1b3e:	b1 c2       	rjmp	.+1378   	; 0x20a2 <_Z14anim_inputDataP12fft_result_tS0_+0x121e>
    1b40:	10 92 c6 22 	sts	0x22C6, r1
    1b44:	10 92 c7 22 	sts	0x22C7, r1
    1b48:	20 91 dc 22 	lds	r18, 0x22DC
    1b4c:	30 91 dd 22 	lds	r19, 0x22DD
    1b50:	80 91 2d 22 	lds	r24, 0x222D
    1b54:	90 91 2e 22 	lds	r25, 0x222E
    1b58:	82 17       	cp	r24, r18
    1b5a:	93 07       	cpc	r25, r19
    1b5c:	08 f0       	brcs	.+2      	; 0x1b60 <_Z14anim_inputDataP12fft_result_tS0_+0xcdc>
    1b5e:	9c c2       	rjmp	.+1336   	; 0x2098 <_Z14anim_inputDataP12fft_result_tS0_+0x1214>
    1b60:	28 1b       	sub	r18, r24
    1b62:	39 0b       	sbc	r19, r25
    1b64:	20 93 dc 22 	sts	0x22DC, r18
    1b68:	30 93 dd 22 	sts	0x22DD, r19
    1b6c:	20 91 c8 22 	lds	r18, 0x22C8
    1b70:	30 91 c9 22 	lds	r19, 0x22C9
    1b74:	80 91 41 22 	lds	r24, 0x2241
    1b78:	90 91 42 22 	lds	r25, 0x2242
    1b7c:	82 17       	cp	r24, r18
    1b7e:	93 07       	cpc	r25, r19
    1b80:	08 f0       	brcs	.+2      	; 0x1b84 <_Z14anim_inputDataP12fft_result_tS0_+0xd00>
    1b82:	85 c2       	rjmp	.+1290   	; 0x208e <_Z14anim_inputDataP12fft_result_tS0_+0x120a>
    1b84:	28 1b       	sub	r18, r24
    1b86:	39 0b       	sbc	r19, r25
    1b88:	20 93 c8 22 	sts	0x22C8, r18
    1b8c:	30 93 c9 22 	sts	0x22C9, r19
    1b90:	80 91 43 22 	lds	r24, 0x2243
    1b94:	90 91 44 22 	lds	r25, 0x2244
    1b98:	8e 15       	cp	r24, r14
    1b9a:	9f 05       	cpc	r25, r15
    1b9c:	08 f0       	brcs	.+2      	; 0x1ba0 <_Z14anim_inputDataP12fft_result_tS0_+0xd1c>
    1b9e:	72 c2       	rjmp	.+1252   	; 0x2084 <_Z14anim_inputDataP12fft_result_tS0_+0x1200>
    1ba0:	e8 1a       	sub	r14, r24
    1ba2:	f9 0a       	sbc	r15, r25
    1ba4:	e0 92 b4 22 	sts	0x22B4, r14
    1ba8:	f0 92 b5 22 	sts	0x22B5, r15
    1bac:	80 91 45 22 	lds	r24, 0x2245
    1bb0:	90 91 46 22 	lds	r25, 0x2246
    1bb4:	8c 15       	cp	r24, r12
    1bb6:	9d 05       	cpc	r25, r13
    1bb8:	08 f0       	brcs	.+2      	; 0x1bbc <_Z14anim_inputDataP12fft_result_tS0_+0xd38>
    1bba:	5f c2       	rjmp	.+1214   	; 0x207a <_Z14anim_inputDataP12fft_result_tS0_+0x11f6>
    1bbc:	c8 1a       	sub	r12, r24
    1bbe:	d9 0a       	sbc	r13, r25
    1bc0:	c0 92 b2 22 	sts	0x22B2, r12
    1bc4:	d0 92 b3 22 	sts	0x22B3, r13
    1bc8:	20 91 4b 22 	lds	r18, 0x224B
    1bcc:	30 91 4c 22 	lds	r19, 0x224C
    1bd0:	60 91 49 22 	lds	r22, 0x2249
    1bd4:	70 91 4a 22 	lds	r23, 0x224A
    1bd8:	80 e0       	ldi	r24, 0x00	; 0
    1bda:	90 e0       	ldi	r25, 0x00	; 0
    1bdc:	62 0f       	add	r22, r18
    1bde:	73 1f       	adc	r23, r19
    1be0:	81 1d       	adc	r24, r1
    1be2:	91 1d       	adc	r25, r1
    1be4:	20 91 6b 22 	lds	r18, 0x226B
    1be8:	30 91 6c 22 	lds	r19, 0x226C
    1bec:	80 90 69 22 	lds	r8, 0x2269
    1bf0:	90 90 6a 22 	lds	r9, 0x226A
    1bf4:	a1 2c       	mov	r10, r1
    1bf6:	b1 2c       	mov	r11, r1
    1bf8:	82 0e       	add	r8, r18
    1bfa:	93 1e       	adc	r9, r19
    1bfc:	a1 1c       	adc	r10, r1
    1bfe:	b1 1c       	adc	r11, r1
    1c00:	20 91 8b 22 	lds	r18, 0x228B
    1c04:	30 91 8c 22 	lds	r19, 0x228C
    1c08:	c0 90 89 22 	lds	r12, 0x2289
    1c0c:	d0 90 8a 22 	lds	r13, 0x228A
    1c10:	e1 2c       	mov	r14, r1
    1c12:	f1 2c       	mov	r15, r1
    1c14:	c2 0e       	add	r12, r18
    1c16:	d3 1e       	adc	r13, r19
    1c18:	e1 1c       	adc	r14, r1
    1c1a:	f1 1c       	adc	r15, r1
    1c1c:	20 91 4d 22 	lds	r18, 0x224D
    1c20:	30 91 4e 22 	lds	r19, 0x224E
    1c24:	62 0f       	add	r22, r18
    1c26:	73 1f       	adc	r23, r19
    1c28:	81 1d       	adc	r24, r1
    1c2a:	91 1d       	adc	r25, r1
    1c2c:	20 91 6d 22 	lds	r18, 0x226D
    1c30:	30 91 6e 22 	lds	r19, 0x226E
    1c34:	82 0e       	add	r8, r18
    1c36:	93 1e       	adc	r9, r19
    1c38:	a1 1c       	adc	r10, r1
    1c3a:	b1 1c       	adc	r11, r1
    1c3c:	20 91 8d 22 	lds	r18, 0x228D
    1c40:	30 91 8e 22 	lds	r19, 0x228E
    1c44:	c2 0e       	add	r12, r18
    1c46:	d3 1e       	adc	r13, r19
    1c48:	e1 1c       	adc	r14, r1
    1c4a:	f1 1c       	adc	r15, r1
    1c4c:	20 91 4f 22 	lds	r18, 0x224F
    1c50:	30 91 50 22 	lds	r19, 0x2250
    1c54:	62 0f       	add	r22, r18
    1c56:	73 1f       	adc	r23, r19
    1c58:	81 1d       	adc	r24, r1
    1c5a:	91 1d       	adc	r25, r1
    1c5c:	20 91 6f 22 	lds	r18, 0x226F
    1c60:	30 91 70 22 	lds	r19, 0x2270
    1c64:	82 0e       	add	r8, r18
    1c66:	93 1e       	adc	r9, r19
    1c68:	a1 1c       	adc	r10, r1
    1c6a:	b1 1c       	adc	r11, r1
    1c6c:	20 91 8f 22 	lds	r18, 0x228F
    1c70:	30 91 90 22 	lds	r19, 0x2290
    1c74:	c2 0e       	add	r12, r18
    1c76:	d3 1e       	adc	r13, r19
    1c78:	e1 1c       	adc	r14, r1
    1c7a:	f1 1c       	adc	r15, r1
    1c7c:	20 91 51 22 	lds	r18, 0x2251
    1c80:	30 91 52 22 	lds	r19, 0x2252
    1c84:	62 0f       	add	r22, r18
    1c86:	73 1f       	adc	r23, r19
    1c88:	81 1d       	adc	r24, r1
    1c8a:	91 1d       	adc	r25, r1
    1c8c:	20 91 71 22 	lds	r18, 0x2271
    1c90:	30 91 72 22 	lds	r19, 0x2272
    1c94:	82 0e       	add	r8, r18
    1c96:	93 1e       	adc	r9, r19
    1c98:	a1 1c       	adc	r10, r1
    1c9a:	b1 1c       	adc	r11, r1
    1c9c:	20 91 91 22 	lds	r18, 0x2291
    1ca0:	30 91 92 22 	lds	r19, 0x2292
    1ca4:	c2 0e       	add	r12, r18
    1ca6:	d3 1e       	adc	r13, r19
    1ca8:	e1 1c       	adc	r14, r1
    1caa:	f1 1c       	adc	r15, r1
    1cac:	20 91 53 22 	lds	r18, 0x2253
    1cb0:	30 91 54 22 	lds	r19, 0x2254
    1cb4:	62 0f       	add	r22, r18
    1cb6:	73 1f       	adc	r23, r19
    1cb8:	81 1d       	adc	r24, r1
    1cba:	91 1d       	adc	r25, r1
    1cbc:	20 91 73 22 	lds	r18, 0x2273
    1cc0:	30 91 74 22 	lds	r19, 0x2274
    1cc4:	82 0e       	add	r8, r18
    1cc6:	93 1e       	adc	r9, r19
    1cc8:	a1 1c       	adc	r10, r1
    1cca:	b1 1c       	adc	r11, r1
    1ccc:	20 91 93 22 	lds	r18, 0x2293
    1cd0:	30 91 94 22 	lds	r19, 0x2294
    1cd4:	c2 0e       	add	r12, r18
    1cd6:	d3 1e       	adc	r13, r19
    1cd8:	e1 1c       	adc	r14, r1
    1cda:	f1 1c       	adc	r15, r1
    1cdc:	20 91 55 22 	lds	r18, 0x2255
    1ce0:	30 91 56 22 	lds	r19, 0x2256
    1ce4:	62 0f       	add	r22, r18
    1ce6:	73 1f       	adc	r23, r19
    1ce8:	81 1d       	adc	r24, r1
    1cea:	91 1d       	adc	r25, r1
    1cec:	20 91 75 22 	lds	r18, 0x2275
    1cf0:	30 91 76 22 	lds	r19, 0x2276
    1cf4:	82 0e       	add	r8, r18
    1cf6:	93 1e       	adc	r9, r19
    1cf8:	a1 1c       	adc	r10, r1
    1cfa:	b1 1c       	adc	r11, r1
    1cfc:	20 91 95 22 	lds	r18, 0x2295
    1d00:	30 91 96 22 	lds	r19, 0x2296
    1d04:	c2 0e       	add	r12, r18
    1d06:	d3 1e       	adc	r13, r19
    1d08:	e1 1c       	adc	r14, r1
    1d0a:	f1 1c       	adc	r15, r1
    1d0c:	20 91 57 22 	lds	r18, 0x2257
    1d10:	30 91 58 22 	lds	r19, 0x2258
    1d14:	62 0f       	add	r22, r18
    1d16:	73 1f       	adc	r23, r19
    1d18:	81 1d       	adc	r24, r1
    1d1a:	91 1d       	adc	r25, r1
    1d1c:	20 91 77 22 	lds	r18, 0x2277
    1d20:	30 91 78 22 	lds	r19, 0x2278
    1d24:	82 0e       	add	r8, r18
    1d26:	93 1e       	adc	r9, r19
    1d28:	a1 1c       	adc	r10, r1
    1d2a:	b1 1c       	adc	r11, r1
    1d2c:	20 91 97 22 	lds	r18, 0x2297
    1d30:	30 91 98 22 	lds	r19, 0x2298
    1d34:	c2 0e       	add	r12, r18
    1d36:	d3 1e       	adc	r13, r19
    1d38:	e1 1c       	adc	r14, r1
    1d3a:	f1 1c       	adc	r15, r1
    1d3c:	20 91 59 22 	lds	r18, 0x2259
    1d40:	30 91 5a 22 	lds	r19, 0x225A
    1d44:	62 0f       	add	r22, r18
    1d46:	73 1f       	adc	r23, r19
    1d48:	81 1d       	adc	r24, r1
    1d4a:	91 1d       	adc	r25, r1
    1d4c:	20 91 79 22 	lds	r18, 0x2279
    1d50:	30 91 7a 22 	lds	r19, 0x227A
    1d54:	82 0e       	add	r8, r18
    1d56:	93 1e       	adc	r9, r19
    1d58:	a1 1c       	adc	r10, r1
    1d5a:	b1 1c       	adc	r11, r1
    1d5c:	20 91 99 22 	lds	r18, 0x2299
    1d60:	30 91 9a 22 	lds	r19, 0x229A
    1d64:	c2 0e       	add	r12, r18
    1d66:	d3 1e       	adc	r13, r19
    1d68:	e1 1c       	adc	r14, r1
    1d6a:	f1 1c       	adc	r15, r1
    1d6c:	20 91 5b 22 	lds	r18, 0x225B
    1d70:	30 91 5c 22 	lds	r19, 0x225C
    1d74:	62 0f       	add	r22, r18
    1d76:	73 1f       	adc	r23, r19
    1d78:	81 1d       	adc	r24, r1
    1d7a:	91 1d       	adc	r25, r1
    1d7c:	20 91 7b 22 	lds	r18, 0x227B
    1d80:	30 91 7c 22 	lds	r19, 0x227C
    1d84:	82 0e       	add	r8, r18
    1d86:	93 1e       	adc	r9, r19
    1d88:	a1 1c       	adc	r10, r1
    1d8a:	b1 1c       	adc	r11, r1
    1d8c:	20 91 9b 22 	lds	r18, 0x229B
    1d90:	30 91 9c 22 	lds	r19, 0x229C
    1d94:	c2 0e       	add	r12, r18
    1d96:	d3 1e       	adc	r13, r19
    1d98:	e1 1c       	adc	r14, r1
    1d9a:	f1 1c       	adc	r15, r1
    1d9c:	20 91 5d 22 	lds	r18, 0x225D
    1da0:	30 91 5e 22 	lds	r19, 0x225E
    1da4:	62 0f       	add	r22, r18
    1da6:	73 1f       	adc	r23, r19
    1da8:	81 1d       	adc	r24, r1
    1daa:	91 1d       	adc	r25, r1
    1dac:	20 91 7d 22 	lds	r18, 0x227D
    1db0:	30 91 7e 22 	lds	r19, 0x227E
    1db4:	82 0e       	add	r8, r18
    1db6:	93 1e       	adc	r9, r19
    1db8:	a1 1c       	adc	r10, r1
    1dba:	b1 1c       	adc	r11, r1
    1dbc:	20 91 9d 22 	lds	r18, 0x229D
    1dc0:	30 91 9e 22 	lds	r19, 0x229E
    1dc4:	c2 0e       	add	r12, r18
    1dc6:	d3 1e       	adc	r13, r19
    1dc8:	e1 1c       	adc	r14, r1
    1dca:	f1 1c       	adc	r15, r1
    1dcc:	20 91 5f 22 	lds	r18, 0x225F
    1dd0:	30 91 60 22 	lds	r19, 0x2260
    1dd4:	62 0f       	add	r22, r18
    1dd6:	73 1f       	adc	r23, r19
    1dd8:	81 1d       	adc	r24, r1
    1dda:	91 1d       	adc	r25, r1
    1ddc:	20 91 7f 22 	lds	r18, 0x227F
    1de0:	30 91 80 22 	lds	r19, 0x2280
    1de4:	82 0e       	add	r8, r18
    1de6:	93 1e       	adc	r9, r19
    1de8:	a1 1c       	adc	r10, r1
    1dea:	b1 1c       	adc	r11, r1
    1dec:	20 91 9f 22 	lds	r18, 0x229F
    1df0:	30 91 a0 22 	lds	r19, 0x22A0
    1df4:	c2 0e       	add	r12, r18
    1df6:	d3 1e       	adc	r13, r19
    1df8:	e1 1c       	adc	r14, r1
    1dfa:	f1 1c       	adc	r15, r1
    1dfc:	20 91 61 22 	lds	r18, 0x2261
    1e00:	30 91 62 22 	lds	r19, 0x2262
    1e04:	62 0f       	add	r22, r18
    1e06:	73 1f       	adc	r23, r19
    1e08:	81 1d       	adc	r24, r1
    1e0a:	91 1d       	adc	r25, r1
    1e0c:	20 91 81 22 	lds	r18, 0x2281
    1e10:	30 91 82 22 	lds	r19, 0x2282
    1e14:	82 0e       	add	r8, r18
    1e16:	93 1e       	adc	r9, r19
    1e18:	a1 1c       	adc	r10, r1
    1e1a:	b1 1c       	adc	r11, r1
    1e1c:	20 91 a1 22 	lds	r18, 0x22A1
    1e20:	30 91 a2 22 	lds	r19, 0x22A2
    1e24:	c2 0e       	add	r12, r18
    1e26:	d3 1e       	adc	r13, r19
    1e28:	e1 1c       	adc	r14, r1
    1e2a:	f1 1c       	adc	r15, r1
    1e2c:	20 91 63 22 	lds	r18, 0x2263
    1e30:	30 91 64 22 	lds	r19, 0x2264
    1e34:	62 0f       	add	r22, r18
    1e36:	73 1f       	adc	r23, r19
    1e38:	81 1d       	adc	r24, r1
    1e3a:	91 1d       	adc	r25, r1
    1e3c:	20 91 83 22 	lds	r18, 0x2283
    1e40:	30 91 84 22 	lds	r19, 0x2284
    1e44:	82 0e       	add	r8, r18
    1e46:	93 1e       	adc	r9, r19
    1e48:	a1 1c       	adc	r10, r1
    1e4a:	b1 1c       	adc	r11, r1
    1e4c:	20 91 a3 22 	lds	r18, 0x22A3
    1e50:	30 91 a4 22 	lds	r19, 0x22A4
    1e54:	c2 0e       	add	r12, r18
    1e56:	d3 1e       	adc	r13, r19
    1e58:	e1 1c       	adc	r14, r1
    1e5a:	f1 1c       	adc	r15, r1
    1e5c:	20 91 65 22 	lds	r18, 0x2265
    1e60:	30 91 66 22 	lds	r19, 0x2266
    1e64:	62 0f       	add	r22, r18
    1e66:	73 1f       	adc	r23, r19
    1e68:	81 1d       	adc	r24, r1
    1e6a:	91 1d       	adc	r25, r1
    1e6c:	20 91 85 22 	lds	r18, 0x2285
    1e70:	30 91 86 22 	lds	r19, 0x2286
    1e74:	82 0e       	add	r8, r18
    1e76:	93 1e       	adc	r9, r19
    1e78:	a1 1c       	adc	r10, r1
    1e7a:	b1 1c       	adc	r11, r1
    1e7c:	20 91 a5 22 	lds	r18, 0x22A5
    1e80:	30 91 a6 22 	lds	r19, 0x22A6
    1e84:	c2 0e       	add	r12, r18
    1e86:	d3 1e       	adc	r13, r19
    1e88:	e1 1c       	adc	r14, r1
    1e8a:	f1 1c       	adc	r15, r1
    1e8c:	20 91 67 22 	lds	r18, 0x2267
    1e90:	30 91 68 22 	lds	r19, 0x2268
    1e94:	62 0f       	add	r22, r18
    1e96:	73 1f       	adc	r23, r19
    1e98:	81 1d       	adc	r24, r1
    1e9a:	91 1d       	adc	r25, r1
    1e9c:	20 91 87 22 	lds	r18, 0x2287
    1ea0:	30 91 88 22 	lds	r19, 0x2288
    1ea4:	82 0e       	add	r8, r18
    1ea6:	93 1e       	adc	r9, r19
    1ea8:	a1 1c       	adc	r10, r1
    1eaa:	b1 1c       	adc	r11, r1
    1eac:	20 91 a7 22 	lds	r18, 0x22A7
    1eb0:	30 91 a8 22 	lds	r19, 0x22A8
    1eb4:	c2 0e       	add	r12, r18
    1eb6:	d3 1e       	adc	r13, r19
    1eb8:	e1 1c       	adc	r14, r1
    1eba:	f1 1c       	adc	r15, r1
    1ebc:	24 e0       	ldi	r18, 0x04	; 4
    1ebe:	b6 94       	lsr	r11
    1ec0:	a7 94       	ror	r10
    1ec2:	97 94       	ror	r9
    1ec4:	87 94       	ror	r8
    1ec6:	2a 95       	dec	r18
    1ec8:	d1 f7       	brne	.-12     	; 0x1ebe <_Z14anim_inputDataP12fft_result_tS0_+0x103a>
    1eca:	34 e0       	ldi	r19, 0x04	; 4
    1ecc:	f6 94       	lsr	r15
    1ece:	e7 94       	ror	r14
    1ed0:	d7 94       	ror	r13
    1ed2:	c7 94       	ror	r12
    1ed4:	3a 95       	dec	r19
    1ed6:	d1 f7       	brne	.-12     	; 0x1ecc <_Z14anim_inputDataP12fft_result_tS0_+0x1048>
    1ed8:	44 e0       	ldi	r20, 0x04	; 4
    1eda:	96 95       	lsr	r25
    1edc:	87 95       	ror	r24
    1ede:	77 95       	ror	r23
    1ee0:	67 95       	ror	r22
    1ee2:	4a 95       	dec	r20
    1ee4:	d1 f7       	brne	.-12     	; 0x1eda <_Z14anim_inputDataP12fft_result_tS0_+0x1056>
    1ee6:	ee d5       	rcall	.+3036   	; 0x2ac4 <__floatunsisf>
    1ee8:	9b 01       	movw	r18, r22
    1eea:	ac 01       	movw	r20, r24
    1eec:	5b d5       	rcall	.+2742   	; 0x29a4 <__addsf3>
    1eee:	be d5       	rcall	.+2940   	; 0x2a6c <__fixunssfsi>
    1ef0:	62 15       	cp	r22, r2
    1ef2:	73 05       	cpc	r23, r3
    1ef4:	08 f4       	brcc	.+2      	; 0x1ef8 <_Z14anim_inputDataP12fft_result_tS0_+0x1074>
    1ef6:	b4 c0       	rjmp	.+360    	; 0x2060 <_Z14anim_inputDataP12fft_result_tS0_+0x11dc>
    1ef8:	10 92 b1 22 	sts	0x22B1, r1
    1efc:	92 e0       	ldi	r25, 0x02	; 2
    1efe:	59 2e       	mov	r5, r25
    1f00:	c5 01       	movw	r24, r10
    1f02:	b4 01       	movw	r22, r8
    1f04:	df d5       	rcall	.+3006   	; 0x2ac4 <__floatunsisf>
    1f06:	26 e6       	ldi	r18, 0x66	; 102
    1f08:	36 e6       	ldi	r19, 0x66	; 102
    1f0a:	46 ee       	ldi	r20, 0xE6	; 230
    1f0c:	5f e3       	ldi	r21, 0x3F	; 63
    1f0e:	68 d6       	rcall	.+3280   	; 0x2be0 <__mulsf3>
    1f10:	ad d5       	rcall	.+2906   	; 0x2a6c <__fixunssfsi>
    1f12:	60 17       	cp	r22, r16
    1f14:	71 07       	cpc	r23, r17
    1f16:	40 f4       	brcc	.+16     	; 0x1f28 <_Z14anim_inputDataP12fft_result_tS0_+0x10a4>
    1f18:	50 92 b1 22 	sts	0x22B1, r5
    1f1c:	80 91 0f 22 	lds	r24, 0x220F
    1f20:	8f 5f       	subi	r24, 0xFF	; 255
    1f22:	80 93 0f 22 	sts	0x220F, r24
    1f26:	58 86       	std	Y+8, r5	; 0x08
    1f28:	c7 01       	movw	r24, r14
    1f2a:	b6 01       	movw	r22, r12
    1f2c:	cb d5       	rcall	.+2966   	; 0x2ac4 <__floatunsisf>
    1f2e:	20 e0       	ldi	r18, 0x00	; 0
    1f30:	30 e0       	ldi	r19, 0x00	; 0
    1f32:	40 ec       	ldi	r20, 0xC0	; 192
    1f34:	5f e3       	ldi	r21, 0x3F	; 63
    1f36:	54 d6       	rcall	.+3240   	; 0x2be0 <__mulsf3>
    1f38:	99 d5       	rcall	.+2866   	; 0x2a6c <__fixunssfsi>
    1f3a:	88 85       	ldd	r24, Y+8	; 0x08
    1f3c:	66 15       	cp	r22, r6
    1f3e:	77 05       	cpc	r23, r7
    1f40:	08 f0       	brcs	.+2      	; 0x1f44 <_Z14anim_inputDataP12fft_result_tS0_+0x10c0>
    1f42:	8a c0       	rjmp	.+276    	; 0x2058 <_Z14anim_inputDataP12fft_result_tS0_+0x11d4>
    1f44:	84 60       	ori	r24, 0x04	; 4
    1f46:	80 93 b1 22 	sts	0x22B1, r24
    1f4a:	80 91 0e 22 	lds	r24, 0x220E
    1f4e:	8f 5f       	subi	r24, 0xFF	; 255
    1f50:	80 93 0e 22 	sts	0x220E, r24
    1f54:	80 91 0d 22 	lds	r24, 0x220D
    1f58:	8f 5f       	subi	r24, 0xFF	; 255
    1f5a:	80 93 0d 22 	sts	0x220D, r24
    1f5e:	80 91 0c 22 	lds	r24, 0x220C
    1f62:	8f 5f       	subi	r24, 0xFF	; 255
    1f64:	80 93 0c 22 	sts	0x220C, r24
    1f68:	88 32       	cpi	r24, 0x28	; 40
    1f6a:	08 f4       	brcc	.+2      	; 0x1f6e <_Z14anim_inputDataP12fft_result_tS0_+0x10ea>
    1f6c:	5e c0       	rjmp	.+188    	; 0x202a <_Z14anim_inputDataP12fft_result_tS0_+0x11a6>
    1f6e:	20 91 ae 22 	lds	r18, 0x22AE
    1f72:	40 91 0e 22 	lds	r20, 0x220E
    1f76:	30 e0       	ldi	r19, 0x00	; 0
    1f78:	c9 01       	movw	r24, r18
    1f7a:	88 0f       	add	r24, r24
    1f7c:	99 1f       	adc	r25, r25
    1f7e:	82 0f       	add	r24, r18
    1f80:	93 1f       	adc	r25, r19
    1f82:	ae e1       	ldi	r26, 0x1E	; 30
    1f84:	4a 9f       	mul	r20, r26
    1f86:	80 0d       	add	r24, r0
    1f88:	91 1d       	adc	r25, r1
    1f8a:	11 24       	eor	r1, r1
    1f8c:	95 95       	asr	r25
    1f8e:	87 95       	ror	r24
    1f90:	95 95       	asr	r25
    1f92:	87 95       	ror	r24
    1f94:	80 93 ae 22 	sts	0x22AE, r24
    1f98:	10 92 0e 22 	sts	0x220E, r1
    1f9c:	20 91 af 22 	lds	r18, 0x22AF
    1fa0:	40 91 0f 22 	lds	r20, 0x220F
    1fa4:	30 e0       	ldi	r19, 0x00	; 0
    1fa6:	c9 01       	movw	r24, r18
    1fa8:	88 0f       	add	r24, r24
    1faa:	99 1f       	adc	r25, r25
    1fac:	82 0f       	add	r24, r18
    1fae:	93 1f       	adc	r25, r19
    1fb0:	be e1       	ldi	r27, 0x1E	; 30
    1fb2:	4b 9f       	mul	r20, r27
    1fb4:	80 0d       	add	r24, r0
    1fb6:	91 1d       	adc	r25, r1
    1fb8:	11 24       	eor	r1, r1
    1fba:	95 95       	asr	r25
    1fbc:	87 95       	ror	r24
    1fbe:	95 95       	asr	r25
    1fc0:	87 95       	ror	r24
    1fc2:	80 93 af 22 	sts	0x22AF, r24
    1fc6:	10 92 0f 22 	sts	0x220F, r1
    1fca:	20 91 b0 22 	lds	r18, 0x22B0
    1fce:	40 91 10 22 	lds	r20, 0x2210
    1fd2:	30 e0       	ldi	r19, 0x00	; 0
    1fd4:	c9 01       	movw	r24, r18
    1fd6:	88 0f       	add	r24, r24
    1fd8:	99 1f       	adc	r25, r25
    1fda:	82 0f       	add	r24, r18
    1fdc:	93 1f       	adc	r25, r19
    1fde:	ee e1       	ldi	r30, 0x1E	; 30
    1fe0:	4e 9f       	mul	r20, r30
    1fe2:	80 0d       	add	r24, r0
    1fe4:	91 1d       	adc	r25, r1
    1fe6:	11 24       	eor	r1, r1
    1fe8:	95 95       	asr	r25
    1fea:	87 95       	ror	r24
    1fec:	95 95       	asr	r25
    1fee:	87 95       	ror	r24
    1ff0:	80 93 b0 22 	sts	0x22B0, r24
    1ff4:	10 92 10 22 	sts	0x2210, r1
    1ff8:	20 91 ad 22 	lds	r18, 0x22AD
    1ffc:	40 91 0d 22 	lds	r20, 0x220D
    2000:	30 e0       	ldi	r19, 0x00	; 0
    2002:	c9 01       	movw	r24, r18
    2004:	88 0f       	add	r24, r24
    2006:	99 1f       	adc	r25, r25
    2008:	82 0f       	add	r24, r18
    200a:	93 1f       	adc	r25, r19
    200c:	fe e1       	ldi	r31, 0x1E	; 30
    200e:	4f 9f       	mul	r20, r31
    2010:	80 0d       	add	r24, r0
    2012:	91 1d       	adc	r25, r1
    2014:	11 24       	eor	r1, r1
    2016:	95 95       	asr	r25
    2018:	87 95       	ror	r24
    201a:	95 95       	asr	r25
    201c:	87 95       	ror	r24
    201e:	80 93 ad 22 	sts	0x22AD, r24
    2022:	10 92 0d 22 	sts	0x220D, r1
    2026:	10 92 0c 22 	sts	0x220C, r1
    202a:	c8 5a       	subi	r28, 0xA8	; 168
    202c:	df 4f       	sbci	r29, 0xFF	; 255
    202e:	cd bf       	out	0x3d, r28	; 61
    2030:	de bf       	out	0x3e, r29	; 62
    2032:	df 91       	pop	r29
    2034:	cf 91       	pop	r28
    2036:	1f 91       	pop	r17
    2038:	0f 91       	pop	r16
    203a:	ff 90       	pop	r15
    203c:	ef 90       	pop	r14
    203e:	df 90       	pop	r13
    2040:	cf 90       	pop	r12
    2042:	bf 90       	pop	r11
    2044:	af 90       	pop	r10
    2046:	9f 90       	pop	r9
    2048:	8f 90       	pop	r8
    204a:	7f 90       	pop	r7
    204c:	6f 90       	pop	r6
    204e:	5f 90       	pop	r5
    2050:	4f 90       	pop	r4
    2052:	3f 90       	pop	r3
    2054:	2f 90       	pop	r2
    2056:	08 95       	ret
    2058:	88 23       	and	r24, r24
    205a:	09 f4       	brne	.+2      	; 0x205e <_Z14anim_inputDataP12fft_result_tS0_+0x11da>
    205c:	80 cf       	rjmp	.-256    	; 0x1f5e <_Z14anim_inputDataP12fft_result_tS0_+0x10da>
    205e:	7a cf       	rjmp	.-268    	; 0x1f54 <_Z14anim_inputDataP12fft_result_tS0_+0x10d0>
    2060:	81 e0       	ldi	r24, 0x01	; 1
    2062:	80 93 b1 22 	sts	0x22B1, r24
    2066:	80 91 10 22 	lds	r24, 0x2210
    206a:	8f 5f       	subi	r24, 0xFF	; 255
    206c:	80 93 10 22 	sts	0x2210, r24
    2070:	83 e0       	ldi	r24, 0x03	; 3
    2072:	58 2e       	mov	r5, r24
    2074:	51 e0       	ldi	r21, 0x01	; 1
    2076:	58 87       	std	Y+8, r21	; 0x08
    2078:	43 cf       	rjmp	.-378    	; 0x1f00 <_Z14anim_inputDataP12fft_result_tS0_+0x107c>
    207a:	10 92 b2 22 	sts	0x22B2, r1
    207e:	10 92 b3 22 	sts	0x22B3, r1
    2082:	a2 cd       	rjmp	.-1212   	; 0x1bc8 <_Z14anim_inputDataP12fft_result_tS0_+0xd44>
    2084:	10 92 b4 22 	sts	0x22B4, r1
    2088:	10 92 b5 22 	sts	0x22B5, r1
    208c:	8f cd       	rjmp	.-1250   	; 0x1bac <_Z14anim_inputDataP12fft_result_tS0_+0xd28>
    208e:	10 92 c8 22 	sts	0x22C8, r1
    2092:	10 92 c9 22 	sts	0x22C9, r1
    2096:	7c cd       	rjmp	.-1288   	; 0x1b90 <_Z14anim_inputDataP12fft_result_tS0_+0xd0c>
    2098:	10 92 dc 22 	sts	0x22DC, r1
    209c:	10 92 dd 22 	sts	0x22DD, r1
    20a0:	65 cd       	rjmp	.-1334   	; 0x1b6c <_Z14anim_inputDataP12fft_result_tS0_+0xce8>
    20a2:	28 1b       	sub	r18, r24
    20a4:	39 0b       	sbc	r19, r25
    20a6:	20 93 c6 22 	sts	0x22C6, r18
    20aa:	30 93 c7 22 	sts	0x22C7, r19
    20ae:	4c cd       	rjmp	.-1384   	; 0x1b48 <_Z14anim_inputDataP12fft_result_tS0_+0xcc4>
    20b0:	28 1b       	sub	r18, r24
    20b2:	39 0b       	sbc	r19, r25
    20b4:	20 93 da 22 	sts	0x22DA, r18
    20b8:	30 93 db 22 	sts	0x22DB, r19
    20bc:	35 cd       	rjmp	.-1430   	; 0x1b28 <_Z14anim_inputDataP12fft_result_tS0_+0xca4>
    20be:	28 1b       	sub	r18, r24
    20c0:	39 0b       	sbc	r19, r25
    20c2:	20 93 c4 22 	sts	0x22C4, r18
    20c6:	30 93 c5 22 	sts	0x22C5, r19
    20ca:	1e cd       	rjmp	.-1476   	; 0x1b08 <_Z14anim_inputDataP12fft_result_tS0_+0xc84>
    20cc:	28 1b       	sub	r18, r24
    20ce:	39 0b       	sbc	r19, r25
    20d0:	20 93 d8 22 	sts	0x22D8, r18
    20d4:	30 93 d9 22 	sts	0x22D9, r19
    20d8:	07 cd       	rjmp	.-1522   	; 0x1ae8 <_Z14anim_inputDataP12fft_result_tS0_+0xc64>
    20da:	28 1b       	sub	r18, r24
    20dc:	39 0b       	sbc	r19, r25
    20de:	20 93 c2 22 	sts	0x22C2, r18
    20e2:	30 93 c3 22 	sts	0x22C3, r19
    20e6:	f0 cc       	rjmp	.-1568   	; 0x1ac8 <_Z14anim_inputDataP12fft_result_tS0_+0xc44>
    20e8:	28 1b       	sub	r18, r24
    20ea:	39 0b       	sbc	r19, r25
    20ec:	20 93 d6 22 	sts	0x22D6, r18
    20f0:	30 93 d7 22 	sts	0x22D7, r19
    20f4:	d9 cc       	rjmp	.-1614   	; 0x1aa8 <_Z14anim_inputDataP12fft_result_tS0_+0xc24>
    20f6:	28 1b       	sub	r18, r24
    20f8:	39 0b       	sbc	r19, r25
    20fa:	20 93 c0 22 	sts	0x22C0, r18
    20fe:	30 93 c1 22 	sts	0x22C1, r19
    2102:	c2 cc       	rjmp	.-1660   	; 0x1a88 <_Z14anim_inputDataP12fft_result_tS0_+0xc04>
    2104:	28 1b       	sub	r18, r24
    2106:	39 0b       	sbc	r19, r25
    2108:	20 93 d4 22 	sts	0x22D4, r18
    210c:	30 93 d5 22 	sts	0x22D5, r19
    2110:	ab cc       	rjmp	.-1706   	; 0x1a68 <_Z14anim_inputDataP12fft_result_tS0_+0xbe4>
    2112:	28 1b       	sub	r18, r24
    2114:	39 0b       	sbc	r19, r25
    2116:	20 93 be 22 	sts	0x22BE, r18
    211a:	30 93 bf 22 	sts	0x22BF, r19
    211e:	94 cc       	rjmp	.-1752   	; 0x1a48 <_Z14anim_inputDataP12fft_result_tS0_+0xbc4>
    2120:	28 1b       	sub	r18, r24
    2122:	39 0b       	sbc	r19, r25
    2124:	20 93 d2 22 	sts	0x22D2, r18
    2128:	30 93 d3 22 	sts	0x22D3, r19
    212c:	7d cc       	rjmp	.-1798   	; 0x1a28 <_Z14anim_inputDataP12fft_result_tS0_+0xba4>
    212e:	28 1b       	sub	r18, r24
    2130:	39 0b       	sbc	r19, r25
    2132:	20 93 bc 22 	sts	0x22BC, r18
    2136:	30 93 bd 22 	sts	0x22BD, r19
    213a:	66 cc       	rjmp	.-1844   	; 0x1a08 <_Z14anim_inputDataP12fft_result_tS0_+0xb84>
    213c:	28 1b       	sub	r18, r24
    213e:	39 0b       	sbc	r19, r25
    2140:	20 93 d0 22 	sts	0x22D0, r18
    2144:	30 93 d1 22 	sts	0x22D1, r19
    2148:	4f cc       	rjmp	.-1890   	; 0x19e8 <_Z14anim_inputDataP12fft_result_tS0_+0xb64>
    214a:	28 1b       	sub	r18, r24
    214c:	39 0b       	sbc	r19, r25
    214e:	20 93 ba 22 	sts	0x22BA, r18
    2152:	30 93 bb 22 	sts	0x22BB, r19
    2156:	38 cc       	rjmp	.-1936   	; 0x19c8 <_Z14anim_inputDataP12fft_result_tS0_+0xb44>
    2158:	28 1b       	sub	r18, r24
    215a:	39 0b       	sbc	r19, r25
    215c:	20 93 ce 22 	sts	0x22CE, r18
    2160:	30 93 cf 22 	sts	0x22CF, r19
    2164:	21 cc       	rjmp	.-1982   	; 0x19a8 <_Z14anim_inputDataP12fft_result_tS0_+0xb24>
    2166:	28 1b       	sub	r18, r24
    2168:	39 0b       	sbc	r19, r25
    216a:	20 93 b8 22 	sts	0x22B8, r18
    216e:	30 93 b9 22 	sts	0x22B9, r19
    2172:	0a cc       	rjmp	.-2028   	; 0x1988 <_Z14anim_inputDataP12fft_result_tS0_+0xb04>
    2174:	28 1b       	sub	r18, r24
    2176:	39 0b       	sbc	r19, r25
    2178:	20 93 cc 22 	sts	0x22CC, r18
    217c:	30 93 cd 22 	sts	0x22CD, r19
    2180:	f3 cb       	rjmp	.-2074   	; 0x1968 <_Z14anim_inputDataP12fft_result_tS0_+0xae4>
    2182:	28 1b       	sub	r18, r24
    2184:	39 0b       	sbc	r19, r25
    2186:	20 93 b6 22 	sts	0x22B6, r18
    218a:	30 93 b7 22 	sts	0x22B7, r19
    218e:	dc cb       	rjmp	.-2120   	; 0x1948 <_Z14anim_inputDataP12fft_result_tS0_+0xac4>
    2190:	28 1b       	sub	r18, r24
    2192:	39 0b       	sbc	r19, r25
    2194:	20 93 ca 22 	sts	0x22CA, r18
    2198:	30 93 cb 22 	sts	0x22CB, r19
    219c:	c5 cb       	rjmp	.-2166   	; 0x1928 <_Z14anim_inputDataP12fft_result_tS0_+0xaa4>

0000219e <_ZN4CFFTC1Ev>:
    219e:	88 5f       	subi	r24, 0xF8	; 248
    21a0:	9b 4f       	sbci	r25, 0xFB	; 251
    21a2:	fc 01       	movw	r30, r24
    21a4:	10 82       	st	Z, r1
    21a6:	08 95       	ret

000021a8 <_ZN4CFFTD1Ev>:
    21a8:	08 95       	ret

000021aa <_ZN4CFFT5doFFTEv>:
    21aa:	88 5f       	subi	r24, 0xF8	; 248
    21ac:	9b 4f       	sbci	r25, 0xFB	; 251
    21ae:	21 e0       	ldi	r18, 0x01	; 1
    21b0:	fc 01       	movw	r30, r24
    21b2:	20 83       	st	Z, r18
    21b4:	08 95       	ret

000021b6 <_ZN4CFFT6doStepEv>:
    21b6:	8f 92       	push	r8
    21b8:	9f 92       	push	r9
    21ba:	af 92       	push	r10
    21bc:	bf 92       	push	r11
    21be:	cf 92       	push	r12
    21c0:	df 92       	push	r13
    21c2:	ef 92       	push	r14
    21c4:	ff 92       	push	r15
    21c6:	0f 93       	push	r16
    21c8:	1f 93       	push	r17
    21ca:	cf 93       	push	r28
    21cc:	df 93       	push	r29
    21ce:	00 d0       	rcall	.+0      	; 0x21d0 <_ZN4CFFT6doStepEv+0x1a>
    21d0:	1f 92       	push	r1
    21d2:	cd b7       	in	r28, 0x3d	; 61
    21d4:	de b7       	in	r29, 0x3e	; 62
    21d6:	6c 01       	movw	r12, r24
    21d8:	28 ef       	ldi	r18, 0xF8	; 248
    21da:	c2 1a       	sub	r12, r18
    21dc:	2b ef       	ldi	r18, 0xFB	; 251
    21de:	d2 0a       	sbc	r13, r18
    21e0:	d6 01       	movw	r26, r12
    21e2:	2c 91       	ld	r18, X
    21e4:	23 30       	cpi	r18, 0x03	; 3
    21e6:	09 f4       	brne	.+2      	; 0x21ea <_ZN4CFFT6doStepEv+0x34>
    21e8:	e4 c0       	rjmp	.+456    	; 0x23b2 <_ZN4CFFT6doStepEv+0x1fc>
    21ea:	a8 f1       	brcs	.+106    	; 0x2256 <_ZN4CFFT6doStepEv+0xa0>
    21ec:	25 30       	cpi	r18, 0x05	; 5
    21ee:	09 f4       	brne	.+2      	; 0x21f2 <_ZN4CFFT6doStepEv+0x3c>
    21f0:	4b c0       	rjmp	.+150    	; 0x2288 <_ZN4CFFT6doStepEv+0xd2>
    21f2:	08 f4       	brcc	.+2      	; 0x21f6 <_ZN4CFFT6doStepEv+0x40>
    21f4:	99 c0       	rjmp	.+306    	; 0x2328 <_ZN4CFFT6doStepEv+0x172>
    21f6:	26 30       	cpi	r18, 0x06	; 6
    21f8:	09 f0       	breq	.+2      	; 0x21fc <_ZN4CFFT6doStepEv+0x46>
    21fa:	4c c0       	rjmp	.+152    	; 0x2294 <_ZN4CFFT6doStepEv+0xde>
    21fc:	7c 01       	movw	r14, r24
    21fe:	bc e7       	ldi	r27, 0x7C	; 124
    2200:	eb 1a       	sub	r14, r27
    2202:	bc ef       	ldi	r27, 0xFC	; 252
    2204:	fb 0a       	sbc	r15, r27
    2206:	b7 01       	movw	r22, r14
    2208:	0e 94 f5 03 	call	0x7ea	; 0x7ea <fft_output>
    220c:	00 e1       	ldi	r16, 0x10	; 16
    220e:	12 e0       	ldi	r17, 0x02	; 2
    2210:	f8 01       	movw	r30, r16
    2212:	25 91       	lpm	r18, Z+
    2214:	35 91       	lpm	r19, Z+
    2216:	45 91       	lpm	r20, Z+
    2218:	54 91       	lpm	r21, Z
    221a:	f7 01       	movw	r30, r14
    221c:	60 81       	ld	r22, Z
    221e:	71 81       	ldd	r23, Z+1	; 0x01
    2220:	80 e0       	ldi	r24, 0x00	; 0
    2222:	90 e0       	ldi	r25, 0x00	; 0
    2224:	29 83       	std	Y+1, r18	; 0x01
    2226:	3a 83       	std	Y+2, r19	; 0x02
    2228:	4b 83       	std	Y+3, r20	; 0x03
    222a:	5c 83       	std	Y+4, r21	; 0x04
    222c:	4b d4       	rcall	.+2198   	; 0x2ac4 <__floatunsisf>
    222e:	29 81       	ldd	r18, Y+1	; 0x01
    2230:	3a 81       	ldd	r19, Y+2	; 0x02
    2232:	4b 81       	ldd	r20, Y+3	; 0x03
    2234:	5c 81       	ldd	r21, Y+4	; 0x04
    2236:	d4 d4       	rcall	.+2472   	; 0x2be0 <__mulsf3>
    2238:	19 d4       	rcall	.+2098   	; 0x2a6c <__fixunssfsi>
    223a:	d7 01       	movw	r26, r14
    223c:	6d 93       	st	X+, r22
    223e:	7d 93       	st	X+, r23
    2240:	7d 01       	movw	r14, r26
    2242:	0c 5f       	subi	r16, 0xFC	; 252
    2244:	1f 4f       	sbci	r17, 0xFF	; 255
    2246:	b3 e0       	ldi	r27, 0x03	; 3
    2248:	00 31       	cpi	r16, 0x10	; 16
    224a:	1b 07       	cpc	r17, r27
    224c:	09 f7       	brne	.-62     	; 0x2210 <_ZN4CFFT6doStepEv+0x5a>
    224e:	f6 01       	movw	r30, r12
    2250:	10 82       	st	Z, r1
    2252:	80 e0       	ldi	r24, 0x00	; 0
    2254:	09 c0       	rjmp	.+18     	; 0x2268 <_ZN4CFFT6doStepEv+0xb2>
    2256:	21 30       	cpi	r18, 0x01	; 1
    2258:	09 f1       	breq	.+66     	; 0x229c <_ZN4CFFT6doStepEv+0xe6>
    225a:	22 30       	cpi	r18, 0x02	; 2
    225c:	d9 f4       	brne	.+54     	; 0x2294 <_ZN4CFFT6doStepEv+0xde>
    225e:	0e 94 2b 03 	call	0x656	; 0x656 <fft_execute>
    2262:	83 e0       	ldi	r24, 0x03	; 3
    2264:	d6 01       	movw	r26, r12
    2266:	8c 93       	st	X, r24
    2268:	24 96       	adiw	r28, 0x04	; 4
    226a:	cd bf       	out	0x3d, r28	; 61
    226c:	de bf       	out	0x3e, r29	; 62
    226e:	df 91       	pop	r29
    2270:	cf 91       	pop	r28
    2272:	1f 91       	pop	r17
    2274:	0f 91       	pop	r16
    2276:	ff 90       	pop	r15
    2278:	ef 90       	pop	r14
    227a:	df 90       	pop	r13
    227c:	cf 90       	pop	r12
    227e:	bf 90       	pop	r11
    2280:	af 90       	pop	r10
    2282:	9f 90       	pop	r9
    2284:	8f 90       	pop	r8
    2286:	08 95       	ret
    2288:	0e 94 2b 03 	call	0x656	; 0x656 <fft_execute>
    228c:	86 e0       	ldi	r24, 0x06	; 6
    228e:	d6 01       	movw	r26, r12
    2290:	8c 93       	st	X, r24
    2292:	ea cf       	rjmp	.-44     	; 0x2268 <_ZN4CFFT6doStepEv+0xb2>
    2294:	d6 01       	movw	r26, r12
    2296:	1c 92       	st	X, r1
    2298:	80 e0       	ldi	r24, 0x00	; 0
    229a:	e6 cf       	rjmp	.-52     	; 0x2268 <_ZN4CFFT6doStepEv+0xb2>
    229c:	4c 01       	movw	r8, r24
    229e:	be e7       	ldi	r27, 0x7E	; 126
    22a0:	8b 1a       	sub	r8, r27
    22a2:	bc ef       	ldi	r27, 0xFC	; 252
    22a4:	9b 0a       	sbc	r9, r27
    22a6:	f4 01       	movw	r30, r8
    22a8:	10 82       	st	Z, r1
    22aa:	11 82       	std	Z+1, r1	; 0x01
    22ac:	7c 01       	movw	r14, r24
    22ae:	f0 e8       	ldi	r31, 0x80	; 128
    22b0:	ef 1a       	sub	r14, r31
    22b2:	fc ef       	ldi	r31, 0xFC	; 252
    22b4:	ff 0a       	sbc	r15, r31
    22b6:	2f ef       	ldi	r18, 0xFF	; 255
    22b8:	3f ef       	ldi	r19, 0xFF	; 255
    22ba:	d7 01       	movw	r26, r14
    22bc:	2d 93       	st	X+, r18
    22be:	3c 93       	st	X, r19
    22c0:	ec e0       	ldi	r30, 0x0C	; 12
    22c2:	f1 e2       	ldi	r31, 0x21	; 33
    22c4:	ac 01       	movw	r20, r24
    22c6:	5e 5f       	subi	r21, 0xFE	; 254
    22c8:	5a 01       	movw	r10, r20
    22ca:	0f ef       	ldi	r16, 0xFF	; 255
    22cc:	1f ef       	ldi	r17, 0xFF	; 255
    22ce:	60 e0       	ldi	r22, 0x00	; 0
    22d0:	70 e0       	ldi	r23, 0x00	; 0
    22d2:	03 c0       	rjmp	.+6      	; 0x22da <_ZN4CFFT6doStepEv+0x124>
    22d4:	d4 01       	movw	r26, r8
    22d6:	6d 91       	ld	r22, X+
    22d8:	7c 91       	ld	r23, X
    22da:	21 91       	ld	r18, Z+
    22dc:	31 91       	ld	r19, Z+
    22de:	62 17       	cp	r22, r18
    22e0:	73 07       	cpc	r23, r19
    22e2:	18 f4       	brcc	.+6      	; 0x22ea <_ZN4CFFT6doStepEv+0x134>
    22e4:	d4 01       	movw	r26, r8
    22e6:	2d 93       	st	X+, r18
    22e8:	3c 93       	st	X, r19
    22ea:	20 17       	cp	r18, r16
    22ec:	31 07       	cpc	r19, r17
    22ee:	20 f4       	brcc	.+8      	; 0x22f8 <_ZN4CFFT6doStepEv+0x142>
    22f0:	d7 01       	movw	r26, r14
    22f2:	2d 93       	st	X+, r18
    22f4:	3c 93       	st	X, r19
    22f6:	89 01       	movw	r16, r18
    22f8:	22 95       	swap	r18
    22fa:	32 95       	swap	r19
    22fc:	30 7f       	andi	r19, 0xF0	; 240
    22fe:	32 27       	eor	r19, r18
    2300:	20 7f       	andi	r18, 0xF0	; 240
    2302:	32 27       	eor	r19, r18
    2304:	2f 5f       	subi	r18, 0xFF	; 255
    2306:	3f 47       	sbci	r19, 0x7F	; 127
    2308:	d5 01       	movw	r26, r10
    230a:	2d 93       	st	X+, r18
    230c:	3d 93       	st	X+, r19
    230e:	5d 01       	movw	r10, r26
    2310:	b2 e2       	ldi	r27, 0x22	; 34
    2312:	ec 30       	cpi	r30, 0x0C	; 12
    2314:	fb 07       	cpc	r31, r27
    2316:	f1 f6       	brne	.-68     	; 0x22d4 <_ZN4CFFT6doStepEv+0x11e>
    2318:	bc 01       	movw	r22, r24
    231a:	ca 01       	movw	r24, r20
    231c:	0e 94 fc 02 	call	0x5f8	; 0x5f8 <fft_input>
    2320:	82 e0       	ldi	r24, 0x02	; 2
    2322:	f6 01       	movw	r30, r12
    2324:	80 83       	st	Z, r24
    2326:	a0 cf       	rjmp	.-192    	; 0x2268 <_ZN4CFFT6doStepEv+0xb2>
    2328:	4c 01       	movw	r8, r24
    232a:	fa ef       	ldi	r31, 0xFA	; 250
    232c:	8f 1a       	sub	r8, r31
    232e:	fb ef       	ldi	r31, 0xFB	; 251
    2330:	9f 0a       	sbc	r9, r31
    2332:	d4 01       	movw	r26, r8
    2334:	1d 92       	st	X+, r1
    2336:	1c 92       	st	X, r1
    2338:	7c 01       	movw	r14, r24
    233a:	b4 e0       	ldi	r27, 0x04	; 4
    233c:	eb 0e       	add	r14, r27
    233e:	fb 1e       	adc	r15, r27
    2340:	2f ef       	ldi	r18, 0xFF	; 255
    2342:	3f ef       	ldi	r19, 0xFF	; 255
    2344:	f7 01       	movw	r30, r14
    2346:	20 83       	st	Z, r18
    2348:	31 83       	std	Z+1, r19	; 0x01
    234a:	ec e0       	ldi	r30, 0x0C	; 12
    234c:	f0 e2       	ldi	r31, 0x20	; 32
    234e:	ac 01       	movw	r20, r24
    2350:	5e 5f       	subi	r21, 0xFE	; 254
    2352:	5a 01       	movw	r10, r20
    2354:	0f ef       	ldi	r16, 0xFF	; 255
    2356:	1f ef       	ldi	r17, 0xFF	; 255
    2358:	60 e0       	ldi	r22, 0x00	; 0
    235a:	70 e0       	ldi	r23, 0x00	; 0
    235c:	03 c0       	rjmp	.+6      	; 0x2364 <_ZN4CFFT6doStepEv+0x1ae>
    235e:	d4 01       	movw	r26, r8
    2360:	6d 91       	ld	r22, X+
    2362:	7c 91       	ld	r23, X
    2364:	21 91       	ld	r18, Z+
    2366:	31 91       	ld	r19, Z+
    2368:	62 17       	cp	r22, r18
    236a:	73 07       	cpc	r23, r19
    236c:	18 f4       	brcc	.+6      	; 0x2374 <_ZN4CFFT6doStepEv+0x1be>
    236e:	d4 01       	movw	r26, r8
    2370:	2d 93       	st	X+, r18
    2372:	3c 93       	st	X, r19
    2374:	20 17       	cp	r18, r16
    2376:	31 07       	cpc	r19, r17
    2378:	20 f4       	brcc	.+8      	; 0x2382 <_ZN4CFFT6doStepEv+0x1cc>
    237a:	d7 01       	movw	r26, r14
    237c:	2d 93       	st	X+, r18
    237e:	3c 93       	st	X, r19
    2380:	89 01       	movw	r16, r18
    2382:	22 95       	swap	r18
    2384:	32 95       	swap	r19
    2386:	30 7f       	andi	r19, 0xF0	; 240
    2388:	32 27       	eor	r19, r18
    238a:	20 7f       	andi	r18, 0xF0	; 240
    238c:	32 27       	eor	r19, r18
    238e:	2f 5f       	subi	r18, 0xFF	; 255
    2390:	3f 47       	sbci	r19, 0x7F	; 127
    2392:	d5 01       	movw	r26, r10
    2394:	2d 93       	st	X+, r18
    2396:	3d 93       	st	X+, r19
    2398:	5d 01       	movw	r10, r26
    239a:	b1 e2       	ldi	r27, 0x21	; 33
    239c:	ec 30       	cpi	r30, 0x0C	; 12
    239e:	fb 07       	cpc	r31, r27
    23a0:	f1 f6       	brne	.-68     	; 0x235e <_ZN4CFFT6doStepEv+0x1a8>
    23a2:	bc 01       	movw	r22, r24
    23a4:	ca 01       	movw	r24, r20
    23a6:	0e 94 fc 02 	call	0x5f8	; 0x5f8 <fft_input>
    23aa:	85 e0       	ldi	r24, 0x05	; 5
    23ac:	f6 01       	movw	r30, r12
    23ae:	80 83       	st	Z, r24
    23b0:	5b cf       	rjmp	.-330    	; 0x2268 <_ZN4CFFT6doStepEv+0xb2>
    23b2:	7c 01       	movw	r14, r24
    23b4:	bd ef       	ldi	r27, 0xFD	; 253
    23b6:	fb 1a       	sub	r15, r27
    23b8:	b7 01       	movw	r22, r14
    23ba:	0e 94 f5 03 	call	0x7ea	; 0x7ea <fft_output>
    23be:	00 e1       	ldi	r16, 0x10	; 16
    23c0:	12 e0       	ldi	r17, 0x02	; 2
    23c2:	f8 01       	movw	r30, r16
    23c4:	25 91       	lpm	r18, Z+
    23c6:	35 91       	lpm	r19, Z+
    23c8:	45 91       	lpm	r20, Z+
    23ca:	54 91       	lpm	r21, Z
    23cc:	f7 01       	movw	r30, r14
    23ce:	60 81       	ld	r22, Z
    23d0:	71 81       	ldd	r23, Z+1	; 0x01
    23d2:	80 e0       	ldi	r24, 0x00	; 0
    23d4:	90 e0       	ldi	r25, 0x00	; 0
    23d6:	29 83       	std	Y+1, r18	; 0x01
    23d8:	3a 83       	std	Y+2, r19	; 0x02
    23da:	4b 83       	std	Y+3, r20	; 0x03
    23dc:	5c 83       	std	Y+4, r21	; 0x04
    23de:	72 d3       	rcall	.+1764   	; 0x2ac4 <__floatunsisf>
    23e0:	29 81       	ldd	r18, Y+1	; 0x01
    23e2:	3a 81       	ldd	r19, Y+2	; 0x02
    23e4:	4b 81       	ldd	r20, Y+3	; 0x03
    23e6:	5c 81       	ldd	r21, Y+4	; 0x04
    23e8:	fb d3       	rcall	.+2038   	; 0x2be0 <__mulsf3>
    23ea:	40 d3       	rcall	.+1664   	; 0x2a6c <__fixunssfsi>
    23ec:	d7 01       	movw	r26, r14
    23ee:	6d 93       	st	X+, r22
    23f0:	7d 93       	st	X+, r23
    23f2:	7d 01       	movw	r14, r26
    23f4:	0c 5f       	subi	r16, 0xFC	; 252
    23f6:	1f 4f       	sbci	r17, 0xFF	; 255
    23f8:	b3 e0       	ldi	r27, 0x03	; 3
    23fa:	00 31       	cpi	r16, 0x10	; 16
    23fc:	1b 07       	cpc	r17, r27
    23fe:	09 f7       	brne	.-62     	; 0x23c2 <_ZN4CFFT6doStepEv+0x20c>
    2400:	84 e0       	ldi	r24, 0x04	; 4
    2402:	f6 01       	movw	r30, r12
    2404:	80 83       	st	Z, r24
    2406:	30 cf       	rjmp	.-416    	; 0x2268 <_ZN4CFFT6doStepEv+0xb2>

00002408 <_ZN4CFFT7getLeftEv>:
    2408:	8c 57       	subi	r24, 0x7C	; 124
    240a:	9c 4f       	sbci	r25, 0xFC	; 252
    240c:	08 95       	ret

0000240e <_ZN4CFFT8getRightEv>:
    240e:	9d 5f       	subi	r25, 0xFD	; 253
    2410:	08 95       	ret

00002412 <_Z8spi_initv>:
    2412:	e0 e4       	ldi	r30, 0x40	; 64
    2414:	f6 e0       	ldi	r31, 0x06	; 6
    2416:	81 81       	ldd	r24, Z+1	; 0x01
    2418:	8f 71       	andi	r24, 0x1F	; 31
    241a:	81 83       	std	Z+1, r24	; 0x01
    241c:	81 81       	ldd	r24, Z+1	; 0x01
    241e:	80 6a       	ori	r24, 0xA0	; 160
    2420:	81 83       	std	Z+1, r24	; 0x01
    2422:	e0 ec       	ldi	r30, 0xC0	; 192
    2424:	f8 e0       	ldi	r31, 0x08	; 8
    2426:	80 ed       	ldi	r24, 0xD0	; 208
    2428:	80 83       	st	Z, r24
    242a:	11 82       	std	Z+1, r1	; 0x01
    242c:	08 95       	ret

0000242e <_Z17spi_transmit_syncPhh>:
    242e:	66 23       	and	r22, r22
    2430:	69 f0       	breq	.+26     	; 0x244c <_Z17spi_transmit_syncPhh+0x1e>
    2432:	28 2f       	mov	r18, r24
    2434:	fc 01       	movw	r30, r24
    2436:	81 91       	ld	r24, Z+
    2438:	80 93 c3 08 	sts	0x08C3, r24
    243c:	80 91 c2 08 	lds	r24, 0x08C2
    2440:	87 ff       	sbrs	r24, 7
    2442:	fc cf       	rjmp	.-8      	; 0x243c <_Z17spi_transmit_syncPhh+0xe>
    2444:	8e 2f       	mov	r24, r30
    2446:	82 1b       	sub	r24, r18
    2448:	86 17       	cp	r24, r22
    244a:	a8 f3       	brcs	.-22     	; 0x2436 <_Z17spi_transmit_syncPhh+0x8>
    244c:	08 95       	ret

0000244e <_Z14spi_fast_shifth>:
    244e:	80 93 c3 08 	sts	0x08C3, r24
    2452:	80 91 c2 08 	lds	r24, 0x08C2
    2456:	87 ff       	sbrs	r24, 7
    2458:	fc cf       	rjmp	.-8      	; 0x2452 <_Z14spi_fast_shifth+0x4>
    245a:	80 91 c3 08 	lds	r24, 0x08C3
    245e:	08 95       	ret

00002460 <main>:
    2460:	8b ec       	ldi	r24, 0xCB	; 203
    2462:	80 93 52 00 	sts	0x0052, r24
    2466:	80 91 50 00 	lds	r24, 0x0050
    246a:	88 60       	ori	r24, 0x08	; 8
    246c:	80 93 50 00 	sts	0x0050, r24
    2470:	80 91 51 00 	lds	r24, 0x0051
    2474:	83 ff       	sbrs	r24, 3
    2476:	fc cf       	rjmp	.-8      	; 0x2470 <main+0x10>
    2478:	82 ec       	ldi	r24, 0xC2	; 194
    247a:	80 93 55 00 	sts	0x0055, r24
    247e:	80 91 50 00 	lds	r24, 0x0050
    2482:	80 61       	ori	r24, 0x10	; 16
    2484:	80 93 50 00 	sts	0x0050, r24
    2488:	80 91 51 00 	lds	r24, 0x0051
    248c:	84 ff       	sbrs	r24, 4
    248e:	fc cf       	rjmp	.-8      	; 0x2488 <main+0x28>
    2490:	88 ed       	ldi	r24, 0xD8	; 216
    2492:	84 bf       	out	0x34, r24	; 52
    2494:	84 e0       	ldi	r24, 0x04	; 4
    2496:	80 93 40 00 	sts	0x0040, r24
    249a:	80 91 50 00 	lds	r24, 0x0050
    249e:	8e 7f       	andi	r24, 0xFE	; 254
    24a0:	80 93 50 00 	sts	0x0050, r24
    24a4:	10 92 e0 22 	sts	0x22E0, r1
    24a8:	10 92 e1 22 	sts	0x22E1, r1
    24ac:	10 92 e2 22 	sts	0x22E2, r1
    24b0:	10 92 e3 22 	sts	0x22E3, r1
    24b4:	81 e0       	ldi	r24, 0x01	; 1
    24b6:	80 93 40 08 	sts	0x0840, r24
    24ba:	82 e0       	ldi	r24, 0x02	; 2
    24bc:	80 93 46 08 	sts	0x0846, r24
    24c0:	8f ef       	ldi	r24, 0xFF	; 255
    24c2:	9c e7       	ldi	r25, 0x7C	; 124
    24c4:	80 93 66 08 	sts	0x0866, r24
    24c8:	90 93 67 08 	sts	0x0867, r25
    24cc:	80 e8       	ldi	r24, 0x80	; 128
    24ce:	80 93 00 01 	sts	0x0100, r24
    24d2:	2f ef       	ldi	r18, 0xFF	; 255
    24d4:	83 ec       	ldi	r24, 0xC3	; 195
    24d6:	99 e0       	ldi	r25, 0x09	; 9
    24d8:	21 50       	subi	r18, 0x01	; 1
    24da:	80 40       	sbci	r24, 0x00	; 0
    24dc:	90 40       	sbci	r25, 0x00	; 0
    24de:	e1 f7       	brne	.-8      	; 0x24d8 <main+0x78>
    24e0:	00 c0       	rjmp	.+0      	; 0x24e2 <main+0x82>
    24e2:	00 00       	nop
    24e4:	80 91 01 06 	lds	r24, 0x0601
    24e8:	84 60       	ori	r24, 0x04	; 4
    24ea:	80 93 01 06 	sts	0x0601, r24
    24ee:	4d d1       	rcall	.+666    	; 0x278a <_Z14wl_module_initv>
    24f0:	0e 94 71 05 	call	0xae2	; 0xae2 <_Z9anim_initv>
    24f4:	0e 94 90 04 	call	0x920	; 0x920 <_Z8adc_initv>
    24f8:	80 ef       	ldi	r24, 0xF0	; 240
    24fa:	96 e2       	ldi	r25, 0x26	; 38
    24fc:	81 30       	cpi	r24, 0x01	; 1
    24fe:	90 44       	sbci	r25, 0x40	; 64
    2500:	08 f0       	brcs	.+2      	; 0x2504 <main+0xa4>
    2502:	8b c0       	rjmp	.+278    	; 0x261a <main+0x1ba>
    2504:	e0 e0       	ldi	r30, 0x00	; 0
    2506:	f0 e4       	ldi	r31, 0x40	; 64
    2508:	80 e0       	ldi	r24, 0x00	; 0
    250a:	90 e0       	ldi	r25, 0x00	; 0
    250c:	32 91       	ld	r19, -Z
    250e:	22 91       	ld	r18, -Z
    2510:	82 27       	eor	r24, r18
    2512:	93 27       	eor	r25, r19
    2514:	26 e2       	ldi	r18, 0x26	; 38
    2516:	e0 3f       	cpi	r30, 0xF0	; 240
    2518:	f2 07       	cpc	r31, r18
    251a:	c0 f7       	brcc	.-16     	; 0x250c <main+0xac>
    251c:	72 d4       	rcall	.+2276   	; 0x2e02 <srand>
    251e:	84 e0       	ldi	r24, 0x04	; 4
    2520:	80 93 04 06 	sts	0x0604, r24
    2524:	8f ef       	ldi	r24, 0xFF	; 255
    2526:	93 ec       	ldi	r25, 0xC3	; 195
    2528:	29 e0       	ldi	r18, 0x09	; 9
    252a:	81 50       	subi	r24, 0x01	; 1
    252c:	90 40       	sbci	r25, 0x00	; 0
    252e:	20 40       	sbci	r18, 0x00	; 0
    2530:	e1 f7       	brne	.-8      	; 0x252a <main+0xca>
    2532:	00 c0       	rjmp	.+0      	; 0x2534 <main+0xd4>
    2534:	00 00       	nop
    2536:	8b ef       	ldi	r24, 0xFB	; 251
    2538:	80 93 04 06 	sts	0x0604, r24
    253c:	80 e0       	ldi	r24, 0x00	; 0
    253e:	3a d1       	rcall	.+628    	; 0x27b4 <_Z19wl_module_tx_configh>
    2540:	10 92 df 22 	sts	0x22DF, r1
    2544:	10 92 de 22 	sts	0x22DE, r1
    2548:	80 91 a2 00 	lds	r24, 0x00A2
    254c:	87 60       	ori	r24, 0x07	; 7
    254e:	80 93 a2 00 	sts	0x00A2, r24
    2552:	78 94       	sei
    2554:	13 e0       	ldi	r17, 0x03	; 3
    2556:	80 91 de 22 	lds	r24, 0x22DE
    255a:	81 30       	cpi	r24, 0x01	; 1
    255c:	69 f0       	breq	.+26     	; 0x2578 <main+0x118>
    255e:	80 91 df 22 	lds	r24, 0x22DF
    2562:	81 ff       	sbrs	r24, 1
    2564:	0f c0       	rjmp	.+30     	; 0x2584 <main+0x124>
    2566:	80 91 df 22 	lds	r24, 0x22DF
    256a:	8d 7f       	andi	r24, 0xFD	; 253
    256c:	80 93 df 22 	sts	0x22DF, r24
    2570:	80 91 de 22 	lds	r24, 0x22DE
    2574:	81 30       	cpi	r24, 0x01	; 1
    2576:	99 f7       	brne	.-26     	; 0x255e <main+0xfe>
    2578:	0e 94 3e 05 	call	0xa7c	; 0xa7c <_Z9adc_checkv>
    257c:	80 91 df 22 	lds	r24, 0x22DF
    2580:	81 fd       	sbrc	r24, 1
    2582:	f1 cf       	rjmp	.-30     	; 0x2566 <main+0x106>
    2584:	80 91 df 22 	lds	r24, 0x22DF
    2588:	80 fd       	sbrc	r24, 0
    258a:	2c c0       	rjmp	.+88     	; 0x25e4 <main+0x184>
    258c:	80 91 de 22 	lds	r24, 0x22DE
    2590:	81 11       	cpse	r24, r1
    2592:	0c c0       	rjmp	.+24     	; 0x25ac <main+0x14c>
    2594:	80 91 df 22 	lds	r24, 0x22DF
    2598:	82 ff       	sbrs	r24, 2
    259a:	08 c0       	rjmp	.+16     	; 0x25ac <main+0x14c>
    259c:	0e 94 cb 04 	call	0x996	; 0x996 <_Z17adc_startSamplingv>
    25a0:	80 91 df 22 	lds	r24, 0x22DF
    25a4:	8b 7f       	andi	r24, 0xFB	; 251
    25a6:	80 93 df 22 	sts	0x22DF, r24
    25aa:	d5 cf       	rjmp	.-86     	; 0x2556 <main+0xf6>
    25ac:	80 91 de 22 	lds	r24, 0x22DE
    25b0:	82 30       	cpi	r24, 0x02	; 2
    25b2:	01 f1       	breq	.+64     	; 0x25f4 <main+0x194>
    25b4:	80 91 de 22 	lds	r24, 0x22DE
    25b8:	83 30       	cpi	r24, 0x03	; 3
    25ba:	11 f1       	breq	.+68     	; 0x2600 <main+0x1a0>
    25bc:	80 91 df 22 	lds	r24, 0x22DF
    25c0:	83 ff       	sbrs	r24, 3
    25c2:	c9 cf       	rjmp	.-110    	; 0x2556 <main+0xf6>
    25c4:	84 ee       	ldi	r24, 0xE4	; 228
    25c6:	92 e2       	ldi	r25, 0x22	; 34
    25c8:	22 df       	rcall	.-444    	; 0x240e <_ZN4CFFT8getRightEv>
    25ca:	ec 01       	movw	r28, r24
    25cc:	84 ee       	ldi	r24, 0xE4	; 228
    25ce:	92 e2       	ldi	r25, 0x22	; 34
    25d0:	1b df       	rcall	.-458    	; 0x2408 <_ZN4CFFT7getLeftEv>
    25d2:	be 01       	movw	r22, r28
    25d4:	0e 94 42 07 	call	0xe84	; 0xe84 <_Z14anim_inputDataP12fft_result_tS0_>
    25d8:	80 91 df 22 	lds	r24, 0x22DF
    25dc:	87 7f       	andi	r24, 0xF7	; 247
    25de:	80 93 df 22 	sts	0x22DF, r24
    25e2:	b9 cf       	rjmp	.-142    	; 0x2556 <main+0xf6>
    25e4:	0e 94 15 06 	call	0xc2a	; 0xc2a <_Z10anim_framev>
    25e8:	80 91 df 22 	lds	r24, 0x22DF
    25ec:	8e 7f       	andi	r24, 0xFE	; 254
    25ee:	80 93 df 22 	sts	0x22DF, r24
    25f2:	b1 cf       	rjmp	.-158    	; 0x2556 <main+0xf6>
    25f4:	84 ee       	ldi	r24, 0xE4	; 228
    25f6:	92 e2       	ldi	r25, 0x22	; 34
    25f8:	d8 dd       	rcall	.-1104   	; 0x21aa <_ZN4CFFT5doFFTEv>
    25fa:	10 93 de 22 	sts	0x22DE, r17
    25fe:	ab cf       	rjmp	.-170    	; 0x2556 <main+0xf6>
    2600:	84 ee       	ldi	r24, 0xE4	; 228
    2602:	92 e2       	ldi	r25, 0x22	; 34
    2604:	d8 dd       	rcall	.-1104   	; 0x21b6 <_ZN4CFFT6doStepEv>
    2606:	81 11       	cpse	r24, r1
    2608:	a6 cf       	rjmp	.-180    	; 0x2556 <main+0xf6>
    260a:	80 91 df 22 	lds	r24, 0x22DF
    260e:	88 60       	ori	r24, 0x08	; 8
    2610:	80 93 df 22 	sts	0x22DF, r24
    2614:	10 92 de 22 	sts	0x22DE, r1
    2618:	9e cf       	rjmp	.-196    	; 0x2556 <main+0xf6>
    261a:	80 e0       	ldi	r24, 0x00	; 0
    261c:	90 e0       	ldi	r25, 0x00	; 0
    261e:	7e cf       	rjmp	.-260    	; 0x251c <main+0xbc>

00002620 <__vector_20>:
    2620:	1f 92       	push	r1
    2622:	0f 92       	push	r0
    2624:	0f b6       	in	r0, 0x3f	; 63
    2626:	0f 92       	push	r0
    2628:	11 24       	eor	r1, r1
    262a:	8f 93       	push	r24
    262c:	9f 93       	push	r25
    262e:	af 93       	push	r26
    2630:	bf 93       	push	r27
    2632:	80 91 09 20 	lds	r24, 0x2009
    2636:	81 50       	subi	r24, 0x01	; 1
    2638:	80 93 09 20 	sts	0x2009, r24
    263c:	81 11       	cpse	r24, r1
    263e:	0b c0       	rjmp	.+22     	; 0x2656 <__vector_20+0x36>
    2640:	81 e0       	ldi	r24, 0x01	; 1
    2642:	80 93 a7 06 	sts	0x06A7, r24
    2646:	80 91 df 22 	lds	r24, 0x22DF
    264a:	81 60       	ori	r24, 0x01	; 1
    264c:	80 93 df 22 	sts	0x22DF, r24
    2650:	80 e1       	ldi	r24, 0x10	; 16
    2652:	80 93 09 20 	sts	0x2009, r24
    2656:	80 91 08 20 	lds	r24, 0x2008
    265a:	81 50       	subi	r24, 0x01	; 1
    265c:	80 93 08 20 	sts	0x2008, r24
    2660:	81 11       	cpse	r24, r1
    2662:	08 c0       	rjmp	.+16     	; 0x2674 <__vector_20+0x54>
    2664:	80 91 df 22 	lds	r24, 0x22DF
    2668:	82 60       	ori	r24, 0x02	; 2
    266a:	80 93 df 22 	sts	0x22DF, r24
    266e:	8a e0       	ldi	r24, 0x0A	; 10
    2670:	80 93 08 20 	sts	0x2008, r24
    2674:	80 91 06 20 	lds	r24, 0x2006
    2678:	90 91 07 20 	lds	r25, 0x2007
    267c:	01 97       	sbiw	r24, 0x01	; 1
    267e:	80 93 06 20 	sts	0x2006, r24
    2682:	90 93 07 20 	sts	0x2007, r25
    2686:	89 2b       	or	r24, r25
    2688:	59 f4       	brne	.+22     	; 0x26a0 <__vector_20+0x80>
    268a:	80 91 df 22 	lds	r24, 0x22DF
    268e:	84 60       	ori	r24, 0x04	; 4
    2690:	80 93 df 22 	sts	0x22DF, r24
    2694:	82 e3       	ldi	r24, 0x32	; 50
    2696:	90 e0       	ldi	r25, 0x00	; 0
    2698:	80 93 06 20 	sts	0x2006, r24
    269c:	90 93 07 20 	sts	0x2007, r25
    26a0:	80 91 e0 22 	lds	r24, 0x22E0
    26a4:	90 91 e1 22 	lds	r25, 0x22E1
    26a8:	a0 91 e2 22 	lds	r26, 0x22E2
    26ac:	b0 91 e3 22 	lds	r27, 0x22E3
    26b0:	01 96       	adiw	r24, 0x01	; 1
    26b2:	a1 1d       	adc	r26, r1
    26b4:	b1 1d       	adc	r27, r1
    26b6:	80 93 e0 22 	sts	0x22E0, r24
    26ba:	90 93 e1 22 	sts	0x22E1, r25
    26be:	a0 93 e2 22 	sts	0x22E2, r26
    26c2:	b0 93 e3 22 	sts	0x22E3, r27
    26c6:	bf 91       	pop	r27
    26c8:	af 91       	pop	r26
    26ca:	9f 91       	pop	r25
    26cc:	8f 91       	pop	r24
    26ce:	0f 90       	pop	r0
    26d0:	0f be       	out	0x3f, r0	; 63
    26d2:	0f 90       	pop	r0
    26d4:	1f 90       	pop	r1
    26d6:	18 95       	reti

000026d8 <__vector_66>:
    26d8:	1f 92       	push	r1
    26da:	0f 92       	push	r0
    26dc:	0f b6       	in	r0, 0x3f	; 63
    26de:	0f 92       	push	r0
    26e0:	11 24       	eor	r1, r1
    26e2:	0b b6       	in	r0, 0x3b	; 59
    26e4:	0f 92       	push	r0
    26e6:	2f 93       	push	r18
    26e8:	3f 93       	push	r19
    26ea:	4f 93       	push	r20
    26ec:	5f 93       	push	r21
    26ee:	6f 93       	push	r22
    26f0:	7f 93       	push	r23
    26f2:	8f 93       	push	r24
    26f4:	9f 93       	push	r25
    26f6:	af 93       	push	r26
    26f8:	bf 93       	push	r27
    26fa:	cf 93       	push	r28
    26fc:	ef 93       	push	r30
    26fe:	ff 93       	push	r31
    2700:	8f ee       	ldi	r24, 0xEF	; 239
    2702:	80 93 44 06 	sts	0x0644, r24
    2706:	8f ef       	ldi	r24, 0xFF	; 255
    2708:	a2 de       	rcall	.-700    	; 0x244e <_Z14spi_fast_shifth>
    270a:	c8 2f       	mov	r28, r24
    270c:	80 e1       	ldi	r24, 0x10	; 16
    270e:	80 93 44 06 	sts	0x0644, r24
    2712:	c5 fd       	sbrc	r28, 5
    2714:	2e c0       	rjmp	.+92     	; 0x2772 <__vector_66+0x9a>
    2716:	c4 fd       	sbrc	r28, 4
    2718:	1e c0       	rjmp	.+60     	; 0x2756 <__vector_66+0x7e>
    271a:	c0 ff       	sbrs	r28, 0
    271c:	08 c0       	rjmp	.+16     	; 0x272e <__vector_66+0x56>
    271e:	8f ee       	ldi	r24, 0xEF	; 239
    2720:	80 93 44 06 	sts	0x0644, r24
    2724:	81 ee       	ldi	r24, 0xE1	; 225
    2726:	93 de       	rcall	.-730    	; 0x244e <_Z14spi_fast_shifth>
    2728:	80 e1       	ldi	r24, 0x10	; 16
    272a:	80 93 44 06 	sts	0x0644, r24
    272e:	ff 91       	pop	r31
    2730:	ef 91       	pop	r30
    2732:	cf 91       	pop	r28
    2734:	bf 91       	pop	r27
    2736:	af 91       	pop	r26
    2738:	9f 91       	pop	r25
    273a:	8f 91       	pop	r24
    273c:	7f 91       	pop	r23
    273e:	6f 91       	pop	r22
    2740:	5f 91       	pop	r21
    2742:	4f 91       	pop	r20
    2744:	3f 91       	pop	r19
    2746:	2f 91       	pop	r18
    2748:	0f 90       	pop	r0
    274a:	0b be       	out	0x3b, r0	; 59
    274c:	0f 90       	pop	r0
    274e:	0f be       	out	0x3f, r0	; 63
    2750:	0f 90       	pop	r0
    2752:	1f 90       	pop	r1
    2754:	18 95       	reti
    2756:	60 e1       	ldi	r22, 0x10	; 16
    2758:	87 e0       	ldi	r24, 0x07	; 7
    275a:	c7 d0       	rcall	.+398    	; 0x28ea <_Z25wl_module_config_registerhh>
    275c:	88 e0       	ldi	r24, 0x08	; 8
    275e:	80 93 44 06 	sts	0x0644, r24
    2762:	8a e6       	ldi	r24, 0x6A	; 106
    2764:	8a 95       	dec	r24
    2766:	f1 f7       	brne	.-4      	; 0x2764 <__vector_66+0x8c>
    2768:	00 c0       	rjmp	.+0      	; 0x276a <__vector_66+0x92>
    276a:	87 ef       	ldi	r24, 0xF7	; 247
    276c:	80 93 44 06 	sts	0x0644, r24
    2770:	d4 cf       	rjmp	.-88     	; 0x271a <__vector_66+0x42>
    2772:	60 e2       	ldi	r22, 0x20	; 32
    2774:	87 e0       	ldi	r24, 0x07	; 7
    2776:	b9 d0       	rcall	.+370    	; 0x28ea <_Z25wl_module_config_registerhh>
    2778:	10 92 ed 26 	sts	0x26ED, r1
    277c:	cc cf       	rjmp	.-104    	; 0x2716 <__vector_66+0x3e>

0000277e <_GLOBAL__sub_I_fft>:
    277e:	84 ee       	ldi	r24, 0xE4	; 228
    2780:	92 e2       	ldi	r25, 0x22	; 34
    2782:	0d cd       	rjmp	.-1510   	; 0x219e <_ZN4CFFTC1Ev>

00002784 <_GLOBAL__sub_D_fft>:
    2784:	84 ee       	ldi	r24, 0xE4	; 228
    2786:	92 e2       	ldi	r25, 0x22	; 34
    2788:	0f cd       	rjmp	.-1506   	; 0x21a8 <_ZN4CFFTD1Ev>

0000278a <_Z14wl_module_initv>:
    278a:	e0 e4       	ldi	r30, 0x40	; 64
    278c:	f6 e0       	ldi	r31, 0x06	; 6
    278e:	81 81       	ldd	r24, Z+1	; 0x01
    2790:	88 61       	ori	r24, 0x18	; 24
    2792:	81 83       	std	Z+1, r24	; 0x01
    2794:	87 ef       	ldi	r24, 0xF7	; 247
    2796:	84 83       	std	Z+4, r24	; 0x04
    2798:	80 e1       	ldi	r24, 0x10	; 16
    279a:	84 83       	std	Z+4, r24	; 0x04
    279c:	e0 e0       	ldi	r30, 0x00	; 0
    279e:	f6 e0       	ldi	r31, 0x06	; 6
    27a0:	81 81       	ldd	r24, Z+1	; 0x01
    27a2:	8d 6f       	ori	r24, 0xFD	; 253
    27a4:	81 83       	std	Z+1, r24	; 0x01
    27a6:	82 e0       	ldi	r24, 0x02	; 2
    27a8:	82 87       	std	Z+10, r24	; 0x0a
    27aa:	82 e3       	ldi	r24, 0x32	; 50
    27ac:	81 8b       	std	Z+17, r24	; 0x11
    27ae:	81 e0       	ldi	r24, 0x01	; 1
    27b0:	81 87       	std	Z+9, r24	; 0x09
    27b2:	2f ce       	rjmp	.-930    	; 0x2412 <_Z8spi_initv>

000027b4 <_Z19wl_module_tx_configh>:
    27b4:	0f 93       	push	r16
    27b6:	1f 93       	push	r17
    27b8:	cf 93       	push	r28
    27ba:	df 93       	push	r29
    27bc:	00 d0       	rcall	.+0      	; 0x27be <_Z19wl_module_tx_configh+0xa>
    27be:	00 d0       	rcall	.+0      	; 0x27c0 <_Z19wl_module_tx_configh+0xc>
    27c0:	cd b7       	in	r28, 0x3d	; 61
    27c2:	de b7       	in	r29, 0x3e	; 62
    27c4:	98 2f       	mov	r25, r24
    27c6:	0f ee       	ldi	r16, 0xEF	; 239
    27c8:	00 93 44 06 	sts	0x0644, r16
    27cc:	85 e2       	ldi	r24, 0x25	; 37
    27ce:	9e 83       	std	Y+6, r25	; 0x06
    27d0:	3e de       	rcall	.-900    	; 0x244e <_Z14spi_fast_shifth>
    27d2:	82 e0       	ldi	r24, 0x02	; 2
    27d4:	3c de       	rcall	.-904    	; 0x244e <_Z14spi_fast_shifth>
    27d6:	10 e1       	ldi	r17, 0x10	; 16
    27d8:	10 93 44 06 	sts	0x0644, r17
    27dc:	00 93 44 06 	sts	0x0644, r16
    27e0:	86 e2       	ldi	r24, 0x26	; 38
    27e2:	35 de       	rcall	.-918    	; 0x244e <_Z14spi_fast_shifth>
    27e4:	8e e0       	ldi	r24, 0x0E	; 14
    27e6:	33 de       	rcall	.-922    	; 0x244e <_Z14spi_fast_shifth>
    27e8:	10 93 44 06 	sts	0x0644, r17
    27ec:	00 93 44 06 	sts	0x0644, r16
    27f0:	80 e2       	ldi	r24, 0x20	; 32
    27f2:	2d de       	rcall	.-934    	; 0x244e <_Z14spi_fast_shifth>
    27f4:	8c e4       	ldi	r24, 0x4C	; 76
    27f6:	2b de       	rcall	.-938    	; 0x244e <_Z14spi_fast_shifth>
    27f8:	10 93 44 06 	sts	0x0644, r17
    27fc:	00 93 44 06 	sts	0x0644, r16
    2800:	84 e2       	ldi	r24, 0x24	; 36
    2802:	25 de       	rcall	.-950    	; 0x244e <_Z14spi_fast_shifth>
    2804:	8f e2       	ldi	r24, 0x2F	; 47
    2806:	23 de       	rcall	.-954    	; 0x244e <_Z14spi_fast_shifth>
    2808:	10 93 44 06 	sts	0x0644, r17
    280c:	9e 81       	ldd	r25, Y+6	; 0x06
    280e:	92 30       	cpi	r25, 0x02	; 2
    2810:	09 f4       	brne	.+2      	; 0x2814 <_Z19wl_module_tx_configh+0x60>
    2812:	64 c0       	rjmp	.+200    	; 0x28dc <_Z19wl_module_tx_configh+0x128>
    2814:	70 f0       	brcs	.+28     	; 0x2832 <_Z19wl_module_tx_configh+0x7e>
    2816:	94 30       	cpi	r25, 0x04	; 4
    2818:	09 f4       	brne	.+2      	; 0x281c <_Z19wl_module_tx_configh+0x68>
    281a:	4c c0       	rjmp	.+152    	; 0x28b4 <_Z19wl_module_tx_configh+0x100>
    281c:	08 f4       	brcc	.+2      	; 0x2820 <_Z19wl_module_tx_configh+0x6c>
    281e:	57 c0       	rjmp	.+174    	; 0x28ce <_Z19wl_module_tx_configh+0x11a>
    2820:	95 30       	cpi	r25, 0x05	; 5
    2822:	61 f5       	brne	.+88     	; 0x287c <_Z19wl_module_tx_configh+0xc8>
    2824:	82 ec       	ldi	r24, 0xC2	; 194
    2826:	8d 83       	std	Y+5, r24	; 0x05
    2828:	8c 83       	std	Y+4, r24	; 0x04
    282a:	8b 83       	std	Y+3, r24	; 0x03
    282c:	8a 83       	std	Y+2, r24	; 0x02
    282e:	86 ec       	ldi	r24, 0xC6	; 198
    2830:	0a c0       	rjmp	.+20     	; 0x2846 <_Z19wl_module_tx_configh+0x92>
    2832:	99 23       	and	r25, r25
    2834:	09 f4       	brne	.+2      	; 0x2838 <_Z19wl_module_tx_configh+0x84>
    2836:	45 c0       	rjmp	.+138    	; 0x28c2 <_Z19wl_module_tx_configh+0x10e>
    2838:	91 30       	cpi	r25, 0x01	; 1
    283a:	01 f5       	brne	.+64     	; 0x287c <_Z19wl_module_tx_configh+0xc8>
    283c:	82 ec       	ldi	r24, 0xC2	; 194
    283e:	8d 83       	std	Y+5, r24	; 0x05
    2840:	8c 83       	std	Y+4, r24	; 0x04
    2842:	8b 83       	std	Y+3, r24	; 0x03
    2844:	8a 83       	std	Y+2, r24	; 0x02
    2846:	89 83       	std	Y+1, r24	; 0x01
    2848:	00 93 44 06 	sts	0x0644, r16
    284c:	80 e3       	ldi	r24, 0x30	; 48
    284e:	ff dd       	rcall	.-1026   	; 0x244e <_Z14spi_fast_shifth>
    2850:	65 e0       	ldi	r22, 0x05	; 5
    2852:	ce 01       	movw	r24, r28
    2854:	01 96       	adiw	r24, 0x01	; 1
    2856:	eb dd       	rcall	.-1066   	; 0x242e <_Z17spi_transmit_syncPhh>
    2858:	10 93 44 06 	sts	0x0644, r17
    285c:	87 ef       	ldi	r24, 0xF7	; 247
    285e:	80 93 44 06 	sts	0x0644, r24
    2862:	00 93 44 06 	sts	0x0644, r16
    2866:	8a e2       	ldi	r24, 0x2A	; 42
    2868:	f2 dd       	rcall	.-1052   	; 0x244e <_Z14spi_fast_shifth>
    286a:	65 e0       	ldi	r22, 0x05	; 5
    286c:	ce 01       	movw	r24, r28
    286e:	01 96       	adiw	r24, 0x01	; 1
    2870:	de dd       	rcall	.-1092   	; 0x242e <_Z17spi_transmit_syncPhh>
    2872:	10 93 44 06 	sts	0x0644, r17
    2876:	88 e0       	ldi	r24, 0x08	; 8
    2878:	80 93 44 06 	sts	0x0644, r24
    287c:	0f ee       	ldi	r16, 0xEF	; 239
    287e:	00 93 44 06 	sts	0x0644, r16
    2882:	81 e2       	ldi	r24, 0x21	; 33
    2884:	e4 dd       	rcall	.-1080   	; 0x244e <_Z14spi_fast_shifth>
    2886:	80 e0       	ldi	r24, 0x00	; 0
    2888:	e2 dd       	rcall	.-1084   	; 0x244e <_Z14spi_fast_shifth>
    288a:	10 e1       	ldi	r17, 0x10	; 16
    288c:	10 93 44 06 	sts	0x0644, r17
    2890:	10 92 ed 26 	sts	0x26ED, r1
    2894:	00 93 44 06 	sts	0x0644, r16
    2898:	80 e2       	ldi	r24, 0x20	; 32
    289a:	d9 dd       	rcall	.-1102   	; 0x244e <_Z14spi_fast_shifth>
    289c:	8e e4       	ldi	r24, 0x4E	; 78
    289e:	d7 dd       	rcall	.-1106   	; 0x244e <_Z14spi_fast_shifth>
    28a0:	10 93 44 06 	sts	0x0644, r17
    28a4:	26 96       	adiw	r28, 0x06	; 6
    28a6:	cd bf       	out	0x3d, r28	; 61
    28a8:	de bf       	out	0x3e, r29	; 62
    28aa:	df 91       	pop	r29
    28ac:	cf 91       	pop	r28
    28ae:	1f 91       	pop	r17
    28b0:	0f 91       	pop	r16
    28b2:	08 95       	ret
    28b4:	82 ec       	ldi	r24, 0xC2	; 194
    28b6:	8d 83       	std	Y+5, r24	; 0x05
    28b8:	8c 83       	std	Y+4, r24	; 0x04
    28ba:	8b 83       	std	Y+3, r24	; 0x03
    28bc:	8a 83       	std	Y+2, r24	; 0x02
    28be:	85 ec       	ldi	r24, 0xC5	; 197
    28c0:	c2 cf       	rjmp	.-124    	; 0x2846 <_Z19wl_module_tx_configh+0x92>
    28c2:	87 ee       	ldi	r24, 0xE7	; 231
    28c4:	8d 83       	std	Y+5, r24	; 0x05
    28c6:	8c 83       	std	Y+4, r24	; 0x04
    28c8:	8b 83       	std	Y+3, r24	; 0x03
    28ca:	8a 83       	std	Y+2, r24	; 0x02
    28cc:	bc cf       	rjmp	.-136    	; 0x2846 <_Z19wl_module_tx_configh+0x92>
    28ce:	82 ec       	ldi	r24, 0xC2	; 194
    28d0:	8d 83       	std	Y+5, r24	; 0x05
    28d2:	8c 83       	std	Y+4, r24	; 0x04
    28d4:	8b 83       	std	Y+3, r24	; 0x03
    28d6:	8a 83       	std	Y+2, r24	; 0x02
    28d8:	84 ec       	ldi	r24, 0xC4	; 196
    28da:	b5 cf       	rjmp	.-150    	; 0x2846 <_Z19wl_module_tx_configh+0x92>
    28dc:	82 ec       	ldi	r24, 0xC2	; 194
    28de:	8d 83       	std	Y+5, r24	; 0x05
    28e0:	8c 83       	std	Y+4, r24	; 0x04
    28e2:	8b 83       	std	Y+3, r24	; 0x03
    28e4:	8a 83       	std	Y+2, r24	; 0x02
    28e6:	83 ec       	ldi	r24, 0xC3	; 195
    28e8:	ae cf       	rjmp	.-164    	; 0x2846 <_Z19wl_module_tx_configh+0x92>

000028ea <_Z25wl_module_config_registerhh>:
    28ea:	0f 93       	push	r16
    28ec:	1f 93       	push	r17
    28ee:	cf 93       	push	r28
    28f0:	df 93       	push	r29
    28f2:	1f 92       	push	r1
    28f4:	cd b7       	in	r28, 0x3d	; 61
    28f6:	de b7       	in	r29, 0x3e	; 62
    28f8:	00 e4       	ldi	r16, 0x40	; 64
    28fa:	16 e0       	ldi	r17, 0x06	; 6
    28fc:	9f ee       	ldi	r25, 0xEF	; 239
    28fe:	f8 01       	movw	r30, r16
    2900:	94 83       	std	Z+4, r25	; 0x04
    2902:	8f 71       	andi	r24, 0x1F	; 31
    2904:	80 62       	ori	r24, 0x20	; 32
    2906:	69 83       	std	Y+1, r22	; 0x01
    2908:	a2 dd       	rcall	.-1212   	; 0x244e <_Z14spi_fast_shifth>
    290a:	69 81       	ldd	r22, Y+1	; 0x01
    290c:	86 2f       	mov	r24, r22
    290e:	9f dd       	rcall	.-1218   	; 0x244e <_Z14spi_fast_shifth>
    2910:	80 e1       	ldi	r24, 0x10	; 16
    2912:	f8 01       	movw	r30, r16
    2914:	84 83       	std	Z+4, r24	; 0x04
    2916:	0f 90       	pop	r0
    2918:	df 91       	pop	r29
    291a:	cf 91       	pop	r28
    291c:	1f 91       	pop	r17
    291e:	0f 91       	pop	r16
    2920:	08 95       	ret

00002922 <_Z14wl_module_sendPhh>:
    2922:	ef 92       	push	r14
    2924:	ff 92       	push	r15
    2926:	0f 93       	push	r16
    2928:	1f 93       	push	r17
    292a:	cf 93       	push	r28
    292c:	df 93       	push	r29
    292e:	1f 92       	push	r1
    2930:	cd b7       	in	r28, 0x3d	; 61
    2932:	de b7       	in	r29, 0x3e	; 62
    2934:	7c 01       	movw	r14, r24
    2936:	80 91 ed 26 	lds	r24, 0x26ED
    293a:	81 11       	cpse	r24, r1
    293c:	fc cf       	rjmp	.-8      	; 0x2936 <_Z14wl_module_sendPhh+0x14>
    293e:	87 ef       	ldi	r24, 0xF7	; 247
    2940:	80 93 44 06 	sts	0x0644, r24
    2944:	81 e0       	ldi	r24, 0x01	; 1
    2946:	80 93 ed 26 	sts	0x26ED, r24
    294a:	0f ee       	ldi	r16, 0xEF	; 239
    294c:	00 93 44 06 	sts	0x0644, r16
    2950:	80 e2       	ldi	r24, 0x20	; 32
    2952:	69 83       	std	Y+1, r22	; 0x01
    2954:	7c dd       	rcall	.-1288   	; 0x244e <_Z14spi_fast_shifth>
    2956:	8e e4       	ldi	r24, 0x4E	; 78
    2958:	7a dd       	rcall	.-1292   	; 0x244e <_Z14spi_fast_shifth>
    295a:	10 e1       	ldi	r17, 0x10	; 16
    295c:	10 93 44 06 	sts	0x0644, r17
    2960:	00 93 44 06 	sts	0x0644, r16
    2964:	81 ee       	ldi	r24, 0xE1	; 225
    2966:	73 dd       	rcall	.-1306   	; 0x244e <_Z14spi_fast_shifth>
    2968:	10 93 44 06 	sts	0x0644, r17
    296c:	00 93 44 06 	sts	0x0644, r16
    2970:	80 ea       	ldi	r24, 0xA0	; 160
    2972:	6d dd       	rcall	.-1318   	; 0x244e <_Z14spi_fast_shifth>
    2974:	69 81       	ldd	r22, Y+1	; 0x01
    2976:	c7 01       	movw	r24, r14
    2978:	5a dd       	rcall	.-1356   	; 0x242e <_Z17spi_transmit_syncPhh>
    297a:	10 93 44 06 	sts	0x0644, r17
    297e:	88 e0       	ldi	r24, 0x08	; 8
    2980:	80 93 44 06 	sts	0x0644, r24
    2984:	8a e6       	ldi	r24, 0x6A	; 106
    2986:	8a 95       	dec	r24
    2988:	f1 f7       	brne	.-4      	; 0x2986 <_Z14wl_module_sendPhh+0x64>
    298a:	00 c0       	rjmp	.+0      	; 0x298c <_Z14wl_module_sendPhh+0x6a>
    298c:	87 ef       	ldi	r24, 0xF7	; 247
    298e:	80 93 44 06 	sts	0x0644, r24
    2992:	0f 90       	pop	r0
    2994:	df 91       	pop	r29
    2996:	cf 91       	pop	r28
    2998:	1f 91       	pop	r17
    299a:	0f 91       	pop	r16
    299c:	ff 90       	pop	r15
    299e:	ef 90       	pop	r14
    29a0:	08 95       	ret

000029a2 <__subsf3>:
    29a2:	50 58       	subi	r21, 0x80	; 128

000029a4 <__addsf3>:
    29a4:	bb 27       	eor	r27, r27
    29a6:	aa 27       	eor	r26, r26
    29a8:	0e d0       	rcall	.+28     	; 0x29c6 <__addsf3x>
    29aa:	e0 c0       	rjmp	.+448    	; 0x2b6c <__fp_round>
    29ac:	d1 d0       	rcall	.+418    	; 0x2b50 <__fp_pscA>
    29ae:	30 f0       	brcs	.+12     	; 0x29bc <__addsf3+0x18>
    29b0:	d6 d0       	rcall	.+428    	; 0x2b5e <__fp_pscB>
    29b2:	20 f0       	brcs	.+8      	; 0x29bc <__addsf3+0x18>
    29b4:	31 f4       	brne	.+12     	; 0x29c2 <__addsf3+0x1e>
    29b6:	9f 3f       	cpi	r25, 0xFF	; 255
    29b8:	11 f4       	brne	.+4      	; 0x29be <__addsf3+0x1a>
    29ba:	1e f4       	brtc	.+6      	; 0x29c2 <__addsf3+0x1e>
    29bc:	c6 c0       	rjmp	.+396    	; 0x2b4a <__fp_nan>
    29be:	0e f4       	brtc	.+2      	; 0x29c2 <__addsf3+0x1e>
    29c0:	e0 95       	com	r30
    29c2:	e7 fb       	bst	r30, 7
    29c4:	bc c0       	rjmp	.+376    	; 0x2b3e <__fp_inf>

000029c6 <__addsf3x>:
    29c6:	e9 2f       	mov	r30, r25
    29c8:	e2 d0       	rcall	.+452    	; 0x2b8e <__fp_split3>
    29ca:	80 f3       	brcs	.-32     	; 0x29ac <__addsf3+0x8>
    29cc:	ba 17       	cp	r27, r26
    29ce:	62 07       	cpc	r22, r18
    29d0:	73 07       	cpc	r23, r19
    29d2:	84 07       	cpc	r24, r20
    29d4:	95 07       	cpc	r25, r21
    29d6:	18 f0       	brcs	.+6      	; 0x29de <__addsf3x+0x18>
    29d8:	71 f4       	brne	.+28     	; 0x29f6 <__addsf3x+0x30>
    29da:	9e f5       	brtc	.+102    	; 0x2a42 <__addsf3x+0x7c>
    29dc:	fa c0       	rjmp	.+500    	; 0x2bd2 <__fp_zero>
    29de:	0e f4       	brtc	.+2      	; 0x29e2 <__addsf3x+0x1c>
    29e0:	e0 95       	com	r30
    29e2:	0b 2e       	mov	r0, r27
    29e4:	ba 2f       	mov	r27, r26
    29e6:	a0 2d       	mov	r26, r0
    29e8:	0b 01       	movw	r0, r22
    29ea:	b9 01       	movw	r22, r18
    29ec:	90 01       	movw	r18, r0
    29ee:	0c 01       	movw	r0, r24
    29f0:	ca 01       	movw	r24, r20
    29f2:	a0 01       	movw	r20, r0
    29f4:	11 24       	eor	r1, r1
    29f6:	ff 27       	eor	r31, r31
    29f8:	59 1b       	sub	r21, r25
    29fa:	99 f0       	breq	.+38     	; 0x2a22 <__addsf3x+0x5c>
    29fc:	59 3f       	cpi	r21, 0xF9	; 249
    29fe:	50 f4       	brcc	.+20     	; 0x2a14 <__addsf3x+0x4e>
    2a00:	50 3e       	cpi	r21, 0xE0	; 224
    2a02:	68 f1       	brcs	.+90     	; 0x2a5e <__addsf3x+0x98>
    2a04:	1a 16       	cp	r1, r26
    2a06:	f0 40       	sbci	r31, 0x00	; 0
    2a08:	a2 2f       	mov	r26, r18
    2a0a:	23 2f       	mov	r18, r19
    2a0c:	34 2f       	mov	r19, r20
    2a0e:	44 27       	eor	r20, r20
    2a10:	58 5f       	subi	r21, 0xF8	; 248
    2a12:	f3 cf       	rjmp	.-26     	; 0x29fa <__addsf3x+0x34>
    2a14:	46 95       	lsr	r20
    2a16:	37 95       	ror	r19
    2a18:	27 95       	ror	r18
    2a1a:	a7 95       	ror	r26
    2a1c:	f0 40       	sbci	r31, 0x00	; 0
    2a1e:	53 95       	inc	r21
    2a20:	c9 f7       	brne	.-14     	; 0x2a14 <__addsf3x+0x4e>
    2a22:	7e f4       	brtc	.+30     	; 0x2a42 <__addsf3x+0x7c>
    2a24:	1f 16       	cp	r1, r31
    2a26:	ba 0b       	sbc	r27, r26
    2a28:	62 0b       	sbc	r22, r18
    2a2a:	73 0b       	sbc	r23, r19
    2a2c:	84 0b       	sbc	r24, r20
    2a2e:	ba f0       	brmi	.+46     	; 0x2a5e <__addsf3x+0x98>
    2a30:	91 50       	subi	r25, 0x01	; 1
    2a32:	a1 f0       	breq	.+40     	; 0x2a5c <__addsf3x+0x96>
    2a34:	ff 0f       	add	r31, r31
    2a36:	bb 1f       	adc	r27, r27
    2a38:	66 1f       	adc	r22, r22
    2a3a:	77 1f       	adc	r23, r23
    2a3c:	88 1f       	adc	r24, r24
    2a3e:	c2 f7       	brpl	.-16     	; 0x2a30 <__addsf3x+0x6a>
    2a40:	0e c0       	rjmp	.+28     	; 0x2a5e <__addsf3x+0x98>
    2a42:	ba 0f       	add	r27, r26
    2a44:	62 1f       	adc	r22, r18
    2a46:	73 1f       	adc	r23, r19
    2a48:	84 1f       	adc	r24, r20
    2a4a:	48 f4       	brcc	.+18     	; 0x2a5e <__addsf3x+0x98>
    2a4c:	87 95       	ror	r24
    2a4e:	77 95       	ror	r23
    2a50:	67 95       	ror	r22
    2a52:	b7 95       	ror	r27
    2a54:	f7 95       	ror	r31
    2a56:	9e 3f       	cpi	r25, 0xFE	; 254
    2a58:	08 f0       	brcs	.+2      	; 0x2a5c <__addsf3x+0x96>
    2a5a:	b3 cf       	rjmp	.-154    	; 0x29c2 <__addsf3+0x1e>
    2a5c:	93 95       	inc	r25
    2a5e:	88 0f       	add	r24, r24
    2a60:	08 f0       	brcs	.+2      	; 0x2a64 <__addsf3x+0x9e>
    2a62:	99 27       	eor	r25, r25
    2a64:	ee 0f       	add	r30, r30
    2a66:	97 95       	ror	r25
    2a68:	87 95       	ror	r24
    2a6a:	08 95       	ret

00002a6c <__fixunssfsi>:
    2a6c:	98 d0       	rcall	.+304    	; 0x2b9e <__fp_splitA>
    2a6e:	88 f0       	brcs	.+34     	; 0x2a92 <__fixunssfsi+0x26>
    2a70:	9f 57       	subi	r25, 0x7F	; 127
    2a72:	90 f0       	brcs	.+36     	; 0x2a98 <__fixunssfsi+0x2c>
    2a74:	b9 2f       	mov	r27, r25
    2a76:	99 27       	eor	r25, r25
    2a78:	b7 51       	subi	r27, 0x17	; 23
    2a7a:	a0 f0       	brcs	.+40     	; 0x2aa4 <__fixunssfsi+0x38>
    2a7c:	d1 f0       	breq	.+52     	; 0x2ab2 <__fixunssfsi+0x46>
    2a7e:	66 0f       	add	r22, r22
    2a80:	77 1f       	adc	r23, r23
    2a82:	88 1f       	adc	r24, r24
    2a84:	99 1f       	adc	r25, r25
    2a86:	1a f0       	brmi	.+6      	; 0x2a8e <__fixunssfsi+0x22>
    2a88:	ba 95       	dec	r27
    2a8a:	c9 f7       	brne	.-14     	; 0x2a7e <__fixunssfsi+0x12>
    2a8c:	12 c0       	rjmp	.+36     	; 0x2ab2 <__fixunssfsi+0x46>
    2a8e:	b1 30       	cpi	r27, 0x01	; 1
    2a90:	81 f0       	breq	.+32     	; 0x2ab2 <__fixunssfsi+0x46>
    2a92:	9f d0       	rcall	.+318    	; 0x2bd2 <__fp_zero>
    2a94:	b1 e0       	ldi	r27, 0x01	; 1
    2a96:	08 95       	ret
    2a98:	9c c0       	rjmp	.+312    	; 0x2bd2 <__fp_zero>
    2a9a:	67 2f       	mov	r22, r23
    2a9c:	78 2f       	mov	r23, r24
    2a9e:	88 27       	eor	r24, r24
    2aa0:	b8 5f       	subi	r27, 0xF8	; 248
    2aa2:	39 f0       	breq	.+14     	; 0x2ab2 <__fixunssfsi+0x46>
    2aa4:	b9 3f       	cpi	r27, 0xF9	; 249
    2aa6:	cc f3       	brlt	.-14     	; 0x2a9a <__fixunssfsi+0x2e>
    2aa8:	86 95       	lsr	r24
    2aaa:	77 95       	ror	r23
    2aac:	67 95       	ror	r22
    2aae:	b3 95       	inc	r27
    2ab0:	d9 f7       	brne	.-10     	; 0x2aa8 <__fixunssfsi+0x3c>
    2ab2:	3e f4       	brtc	.+14     	; 0x2ac2 <__fixunssfsi+0x56>
    2ab4:	90 95       	com	r25
    2ab6:	80 95       	com	r24
    2ab8:	70 95       	com	r23
    2aba:	61 95       	neg	r22
    2abc:	7f 4f       	sbci	r23, 0xFF	; 255
    2abe:	8f 4f       	sbci	r24, 0xFF	; 255
    2ac0:	9f 4f       	sbci	r25, 0xFF	; 255
    2ac2:	08 95       	ret

00002ac4 <__floatunsisf>:
    2ac4:	e8 94       	clt
    2ac6:	09 c0       	rjmp	.+18     	; 0x2ada <__floatsisf+0x12>

00002ac8 <__floatsisf>:
    2ac8:	97 fb       	bst	r25, 7
    2aca:	3e f4       	brtc	.+14     	; 0x2ada <__floatsisf+0x12>
    2acc:	90 95       	com	r25
    2ace:	80 95       	com	r24
    2ad0:	70 95       	com	r23
    2ad2:	61 95       	neg	r22
    2ad4:	7f 4f       	sbci	r23, 0xFF	; 255
    2ad6:	8f 4f       	sbci	r24, 0xFF	; 255
    2ad8:	9f 4f       	sbci	r25, 0xFF	; 255
    2ada:	99 23       	and	r25, r25
    2adc:	a9 f0       	breq	.+42     	; 0x2b08 <__floatsisf+0x40>
    2ade:	f9 2f       	mov	r31, r25
    2ae0:	96 e9       	ldi	r25, 0x96	; 150
    2ae2:	bb 27       	eor	r27, r27
    2ae4:	93 95       	inc	r25
    2ae6:	f6 95       	lsr	r31
    2ae8:	87 95       	ror	r24
    2aea:	77 95       	ror	r23
    2aec:	67 95       	ror	r22
    2aee:	b7 95       	ror	r27
    2af0:	f1 11       	cpse	r31, r1
    2af2:	f8 cf       	rjmp	.-16     	; 0x2ae4 <__floatsisf+0x1c>
    2af4:	fa f4       	brpl	.+62     	; 0x2b34 <__floatsisf+0x6c>
    2af6:	bb 0f       	add	r27, r27
    2af8:	11 f4       	brne	.+4      	; 0x2afe <__floatsisf+0x36>
    2afa:	60 ff       	sbrs	r22, 0
    2afc:	1b c0       	rjmp	.+54     	; 0x2b34 <__floatsisf+0x6c>
    2afe:	6f 5f       	subi	r22, 0xFF	; 255
    2b00:	7f 4f       	sbci	r23, 0xFF	; 255
    2b02:	8f 4f       	sbci	r24, 0xFF	; 255
    2b04:	9f 4f       	sbci	r25, 0xFF	; 255
    2b06:	16 c0       	rjmp	.+44     	; 0x2b34 <__floatsisf+0x6c>
    2b08:	88 23       	and	r24, r24
    2b0a:	11 f0       	breq	.+4      	; 0x2b10 <__floatsisf+0x48>
    2b0c:	96 e9       	ldi	r25, 0x96	; 150
    2b0e:	11 c0       	rjmp	.+34     	; 0x2b32 <__floatsisf+0x6a>
    2b10:	77 23       	and	r23, r23
    2b12:	21 f0       	breq	.+8      	; 0x2b1c <__floatsisf+0x54>
    2b14:	9e e8       	ldi	r25, 0x8E	; 142
    2b16:	87 2f       	mov	r24, r23
    2b18:	76 2f       	mov	r23, r22
    2b1a:	05 c0       	rjmp	.+10     	; 0x2b26 <__floatsisf+0x5e>
    2b1c:	66 23       	and	r22, r22
    2b1e:	71 f0       	breq	.+28     	; 0x2b3c <__floatsisf+0x74>
    2b20:	96 e8       	ldi	r25, 0x86	; 134
    2b22:	86 2f       	mov	r24, r22
    2b24:	70 e0       	ldi	r23, 0x00	; 0
    2b26:	60 e0       	ldi	r22, 0x00	; 0
    2b28:	2a f0       	brmi	.+10     	; 0x2b34 <__floatsisf+0x6c>
    2b2a:	9a 95       	dec	r25
    2b2c:	66 0f       	add	r22, r22
    2b2e:	77 1f       	adc	r23, r23
    2b30:	88 1f       	adc	r24, r24
    2b32:	da f7       	brpl	.-10     	; 0x2b2a <__floatsisf+0x62>
    2b34:	88 0f       	add	r24, r24
    2b36:	96 95       	lsr	r25
    2b38:	87 95       	ror	r24
    2b3a:	97 f9       	bld	r25, 7
    2b3c:	08 95       	ret

00002b3e <__fp_inf>:
    2b3e:	97 f9       	bld	r25, 7
    2b40:	9f 67       	ori	r25, 0x7F	; 127
    2b42:	80 e8       	ldi	r24, 0x80	; 128
    2b44:	70 e0       	ldi	r23, 0x00	; 0
    2b46:	60 e0       	ldi	r22, 0x00	; 0
    2b48:	08 95       	ret

00002b4a <__fp_nan>:
    2b4a:	9f ef       	ldi	r25, 0xFF	; 255
    2b4c:	80 ec       	ldi	r24, 0xC0	; 192
    2b4e:	08 95       	ret

00002b50 <__fp_pscA>:
    2b50:	00 24       	eor	r0, r0
    2b52:	0a 94       	dec	r0
    2b54:	16 16       	cp	r1, r22
    2b56:	17 06       	cpc	r1, r23
    2b58:	18 06       	cpc	r1, r24
    2b5a:	09 06       	cpc	r0, r25
    2b5c:	08 95       	ret

00002b5e <__fp_pscB>:
    2b5e:	00 24       	eor	r0, r0
    2b60:	0a 94       	dec	r0
    2b62:	12 16       	cp	r1, r18
    2b64:	13 06       	cpc	r1, r19
    2b66:	14 06       	cpc	r1, r20
    2b68:	05 06       	cpc	r0, r21
    2b6a:	08 95       	ret

00002b6c <__fp_round>:
    2b6c:	09 2e       	mov	r0, r25
    2b6e:	03 94       	inc	r0
    2b70:	00 0c       	add	r0, r0
    2b72:	11 f4       	brne	.+4      	; 0x2b78 <__fp_round+0xc>
    2b74:	88 23       	and	r24, r24
    2b76:	52 f0       	brmi	.+20     	; 0x2b8c <__fp_round+0x20>
    2b78:	bb 0f       	add	r27, r27
    2b7a:	40 f4       	brcc	.+16     	; 0x2b8c <__fp_round+0x20>
    2b7c:	bf 2b       	or	r27, r31
    2b7e:	11 f4       	brne	.+4      	; 0x2b84 <__fp_round+0x18>
    2b80:	60 ff       	sbrs	r22, 0
    2b82:	04 c0       	rjmp	.+8      	; 0x2b8c <__fp_round+0x20>
    2b84:	6f 5f       	subi	r22, 0xFF	; 255
    2b86:	7f 4f       	sbci	r23, 0xFF	; 255
    2b88:	8f 4f       	sbci	r24, 0xFF	; 255
    2b8a:	9f 4f       	sbci	r25, 0xFF	; 255
    2b8c:	08 95       	ret

00002b8e <__fp_split3>:
    2b8e:	57 fd       	sbrc	r21, 7
    2b90:	90 58       	subi	r25, 0x80	; 128
    2b92:	44 0f       	add	r20, r20
    2b94:	55 1f       	adc	r21, r21
    2b96:	59 f0       	breq	.+22     	; 0x2bae <__fp_splitA+0x10>
    2b98:	5f 3f       	cpi	r21, 0xFF	; 255
    2b9a:	71 f0       	breq	.+28     	; 0x2bb8 <__fp_splitA+0x1a>
    2b9c:	47 95       	ror	r20

00002b9e <__fp_splitA>:
    2b9e:	88 0f       	add	r24, r24
    2ba0:	97 fb       	bst	r25, 7
    2ba2:	99 1f       	adc	r25, r25
    2ba4:	61 f0       	breq	.+24     	; 0x2bbe <__fp_splitA+0x20>
    2ba6:	9f 3f       	cpi	r25, 0xFF	; 255
    2ba8:	79 f0       	breq	.+30     	; 0x2bc8 <__fp_splitA+0x2a>
    2baa:	87 95       	ror	r24
    2bac:	08 95       	ret
    2bae:	12 16       	cp	r1, r18
    2bb0:	13 06       	cpc	r1, r19
    2bb2:	14 06       	cpc	r1, r20
    2bb4:	55 1f       	adc	r21, r21
    2bb6:	f2 cf       	rjmp	.-28     	; 0x2b9c <__fp_split3+0xe>
    2bb8:	46 95       	lsr	r20
    2bba:	f1 df       	rcall	.-30     	; 0x2b9e <__fp_splitA>
    2bbc:	08 c0       	rjmp	.+16     	; 0x2bce <__fp_splitA+0x30>
    2bbe:	16 16       	cp	r1, r22
    2bc0:	17 06       	cpc	r1, r23
    2bc2:	18 06       	cpc	r1, r24
    2bc4:	99 1f       	adc	r25, r25
    2bc6:	f1 cf       	rjmp	.-30     	; 0x2baa <__fp_splitA+0xc>
    2bc8:	86 95       	lsr	r24
    2bca:	71 05       	cpc	r23, r1
    2bcc:	61 05       	cpc	r22, r1
    2bce:	08 94       	sec
    2bd0:	08 95       	ret

00002bd2 <__fp_zero>:
    2bd2:	e8 94       	clt

00002bd4 <__fp_szero>:
    2bd4:	bb 27       	eor	r27, r27
    2bd6:	66 27       	eor	r22, r22
    2bd8:	77 27       	eor	r23, r23
    2bda:	cb 01       	movw	r24, r22
    2bdc:	97 f9       	bld	r25, 7
    2bde:	08 95       	ret

00002be0 <__mulsf3>:
    2be0:	0b d0       	rcall	.+22     	; 0x2bf8 <__mulsf3x>
    2be2:	c4 cf       	rjmp	.-120    	; 0x2b6c <__fp_round>
    2be4:	b5 df       	rcall	.-150    	; 0x2b50 <__fp_pscA>
    2be6:	28 f0       	brcs	.+10     	; 0x2bf2 <__mulsf3+0x12>
    2be8:	ba df       	rcall	.-140    	; 0x2b5e <__fp_pscB>
    2bea:	18 f0       	brcs	.+6      	; 0x2bf2 <__mulsf3+0x12>
    2bec:	95 23       	and	r25, r21
    2bee:	09 f0       	breq	.+2      	; 0x2bf2 <__mulsf3+0x12>
    2bf0:	a6 cf       	rjmp	.-180    	; 0x2b3e <__fp_inf>
    2bf2:	ab cf       	rjmp	.-170    	; 0x2b4a <__fp_nan>
    2bf4:	11 24       	eor	r1, r1
    2bf6:	ee cf       	rjmp	.-36     	; 0x2bd4 <__fp_szero>

00002bf8 <__mulsf3x>:
    2bf8:	ca df       	rcall	.-108    	; 0x2b8e <__fp_split3>
    2bfa:	a0 f3       	brcs	.-24     	; 0x2be4 <__mulsf3+0x4>

00002bfc <__mulsf3_pse>:
    2bfc:	95 9f       	mul	r25, r21
    2bfe:	d1 f3       	breq	.-12     	; 0x2bf4 <__mulsf3+0x14>
    2c00:	95 0f       	add	r25, r21
    2c02:	50 e0       	ldi	r21, 0x00	; 0
    2c04:	55 1f       	adc	r21, r21
    2c06:	62 9f       	mul	r22, r18
    2c08:	f0 01       	movw	r30, r0
    2c0a:	72 9f       	mul	r23, r18
    2c0c:	bb 27       	eor	r27, r27
    2c0e:	f0 0d       	add	r31, r0
    2c10:	b1 1d       	adc	r27, r1
    2c12:	63 9f       	mul	r22, r19
    2c14:	aa 27       	eor	r26, r26
    2c16:	f0 0d       	add	r31, r0
    2c18:	b1 1d       	adc	r27, r1
    2c1a:	aa 1f       	adc	r26, r26
    2c1c:	64 9f       	mul	r22, r20
    2c1e:	66 27       	eor	r22, r22
    2c20:	b0 0d       	add	r27, r0
    2c22:	a1 1d       	adc	r26, r1
    2c24:	66 1f       	adc	r22, r22
    2c26:	82 9f       	mul	r24, r18
    2c28:	22 27       	eor	r18, r18
    2c2a:	b0 0d       	add	r27, r0
    2c2c:	a1 1d       	adc	r26, r1
    2c2e:	62 1f       	adc	r22, r18
    2c30:	73 9f       	mul	r23, r19
    2c32:	b0 0d       	add	r27, r0
    2c34:	a1 1d       	adc	r26, r1
    2c36:	62 1f       	adc	r22, r18
    2c38:	83 9f       	mul	r24, r19
    2c3a:	a0 0d       	add	r26, r0
    2c3c:	61 1d       	adc	r22, r1
    2c3e:	22 1f       	adc	r18, r18
    2c40:	74 9f       	mul	r23, r20
    2c42:	33 27       	eor	r19, r19
    2c44:	a0 0d       	add	r26, r0
    2c46:	61 1d       	adc	r22, r1
    2c48:	23 1f       	adc	r18, r19
    2c4a:	84 9f       	mul	r24, r20
    2c4c:	60 0d       	add	r22, r0
    2c4e:	21 1d       	adc	r18, r1
    2c50:	82 2f       	mov	r24, r18
    2c52:	76 2f       	mov	r23, r22
    2c54:	6a 2f       	mov	r22, r26
    2c56:	11 24       	eor	r1, r1
    2c58:	9f 57       	subi	r25, 0x7F	; 127
    2c5a:	50 40       	sbci	r21, 0x00	; 0
    2c5c:	8a f0       	brmi	.+34     	; 0x2c80 <__mulsf3_pse+0x84>
    2c5e:	e1 f0       	breq	.+56     	; 0x2c98 <__mulsf3_pse+0x9c>
    2c60:	88 23       	and	r24, r24
    2c62:	4a f0       	brmi	.+18     	; 0x2c76 <__mulsf3_pse+0x7a>
    2c64:	ee 0f       	add	r30, r30
    2c66:	ff 1f       	adc	r31, r31
    2c68:	bb 1f       	adc	r27, r27
    2c6a:	66 1f       	adc	r22, r22
    2c6c:	77 1f       	adc	r23, r23
    2c6e:	88 1f       	adc	r24, r24
    2c70:	91 50       	subi	r25, 0x01	; 1
    2c72:	50 40       	sbci	r21, 0x00	; 0
    2c74:	a9 f7       	brne	.-22     	; 0x2c60 <__mulsf3_pse+0x64>
    2c76:	9e 3f       	cpi	r25, 0xFE	; 254
    2c78:	51 05       	cpc	r21, r1
    2c7a:	70 f0       	brcs	.+28     	; 0x2c98 <__mulsf3_pse+0x9c>
    2c7c:	60 cf       	rjmp	.-320    	; 0x2b3e <__fp_inf>
    2c7e:	aa cf       	rjmp	.-172    	; 0x2bd4 <__fp_szero>
    2c80:	5f 3f       	cpi	r21, 0xFF	; 255
    2c82:	ec f3       	brlt	.-6      	; 0x2c7e <__mulsf3_pse+0x82>
    2c84:	98 3e       	cpi	r25, 0xE8	; 232
    2c86:	dc f3       	brlt	.-10     	; 0x2c7e <__mulsf3_pse+0x82>
    2c88:	86 95       	lsr	r24
    2c8a:	77 95       	ror	r23
    2c8c:	67 95       	ror	r22
    2c8e:	b7 95       	ror	r27
    2c90:	f7 95       	ror	r31
    2c92:	e7 95       	ror	r30
    2c94:	9f 5f       	subi	r25, 0xFF	; 255
    2c96:	c1 f7       	brne	.-16     	; 0x2c88 <__mulsf3_pse+0x8c>
    2c98:	fe 2b       	or	r31, r30
    2c9a:	88 0f       	add	r24, r24
    2c9c:	91 1d       	adc	r25, r1
    2c9e:	96 95       	lsr	r25
    2ca0:	87 95       	ror	r24
    2ca2:	97 f9       	bld	r25, 7
    2ca4:	08 95       	ret

00002ca6 <__divmodhi4>:
    2ca6:	97 fb       	bst	r25, 7
    2ca8:	07 2e       	mov	r0, r23
    2caa:	16 f4       	brtc	.+4      	; 0x2cb0 <__divmodhi4+0xa>
    2cac:	00 94       	com	r0
    2cae:	06 d0       	rcall	.+12     	; 0x2cbc <__divmodhi4_neg1>
    2cb0:	77 fd       	sbrc	r23, 7
    2cb2:	08 d0       	rcall	.+16     	; 0x2cc4 <__divmodhi4_neg2>
    2cb4:	46 d0       	rcall	.+140    	; 0x2d42 <__udivmodhi4>
    2cb6:	07 fc       	sbrc	r0, 7
    2cb8:	05 d0       	rcall	.+10     	; 0x2cc4 <__divmodhi4_neg2>
    2cba:	3e f4       	brtc	.+14     	; 0x2cca <__divmodhi4_exit>

00002cbc <__divmodhi4_neg1>:
    2cbc:	90 95       	com	r25
    2cbe:	81 95       	neg	r24
    2cc0:	9f 4f       	sbci	r25, 0xFF	; 255
    2cc2:	08 95       	ret

00002cc4 <__divmodhi4_neg2>:
    2cc4:	70 95       	com	r23
    2cc6:	61 95       	neg	r22
    2cc8:	7f 4f       	sbci	r23, 0xFF	; 255

00002cca <__divmodhi4_exit>:
    2cca:	08 95       	ret

00002ccc <__udivmodsi4>:
    2ccc:	a1 e2       	ldi	r26, 0x21	; 33
    2cce:	1a 2e       	mov	r1, r26
    2cd0:	aa 1b       	sub	r26, r26
    2cd2:	bb 1b       	sub	r27, r27
    2cd4:	fd 01       	movw	r30, r26
    2cd6:	0d c0       	rjmp	.+26     	; 0x2cf2 <__udivmodsi4_ep>

00002cd8 <__udivmodsi4_loop>:
    2cd8:	aa 1f       	adc	r26, r26
    2cda:	bb 1f       	adc	r27, r27
    2cdc:	ee 1f       	adc	r30, r30
    2cde:	ff 1f       	adc	r31, r31
    2ce0:	a2 17       	cp	r26, r18
    2ce2:	b3 07       	cpc	r27, r19
    2ce4:	e4 07       	cpc	r30, r20
    2ce6:	f5 07       	cpc	r31, r21
    2ce8:	20 f0       	brcs	.+8      	; 0x2cf2 <__udivmodsi4_ep>
    2cea:	a2 1b       	sub	r26, r18
    2cec:	b3 0b       	sbc	r27, r19
    2cee:	e4 0b       	sbc	r30, r20
    2cf0:	f5 0b       	sbc	r31, r21

00002cf2 <__udivmodsi4_ep>:
    2cf2:	66 1f       	adc	r22, r22
    2cf4:	77 1f       	adc	r23, r23
    2cf6:	88 1f       	adc	r24, r24
    2cf8:	99 1f       	adc	r25, r25
    2cfa:	1a 94       	dec	r1
    2cfc:	69 f7       	brne	.-38     	; 0x2cd8 <__udivmodsi4_loop>
    2cfe:	60 95       	com	r22
    2d00:	70 95       	com	r23
    2d02:	80 95       	com	r24
    2d04:	90 95       	com	r25
    2d06:	9b 01       	movw	r18, r22
    2d08:	ac 01       	movw	r20, r24
    2d0a:	bd 01       	movw	r22, r26
    2d0c:	cf 01       	movw	r24, r30
    2d0e:	08 95       	ret

00002d10 <__tablejump2__>:
    2d10:	ee 0f       	add	r30, r30
    2d12:	ff 1f       	adc	r31, r31

00002d14 <__tablejump__>:
    2d14:	05 90       	lpm	r0, Z+
    2d16:	f4 91       	lpm	r31, Z
    2d18:	e0 2d       	mov	r30, r0
    2d1a:	19 94       	eijmp

00002d1c <__umulhisi3>:
    2d1c:	a2 9f       	mul	r26, r18
    2d1e:	b0 01       	movw	r22, r0
    2d20:	b3 9f       	mul	r27, r19
    2d22:	c0 01       	movw	r24, r0
    2d24:	a3 9f       	mul	r26, r19
    2d26:	70 0d       	add	r23, r0
    2d28:	81 1d       	adc	r24, r1
    2d2a:	11 24       	eor	r1, r1
    2d2c:	91 1d       	adc	r25, r1
    2d2e:	b2 9f       	mul	r27, r18
    2d30:	70 0d       	add	r23, r0
    2d32:	81 1d       	adc	r24, r1
    2d34:	11 24       	eor	r1, r1
    2d36:	91 1d       	adc	r25, r1
    2d38:	08 95       	ret

00002d3a <__tablejump_elpm__>:
    2d3a:	07 90       	elpm	r0, Z+
    2d3c:	f6 91       	elpm	r31, Z
    2d3e:	e0 2d       	mov	r30, r0
    2d40:	19 94       	eijmp

00002d42 <__udivmodhi4>:
    2d42:	aa 1b       	sub	r26, r26
    2d44:	bb 1b       	sub	r27, r27
    2d46:	51 e1       	ldi	r21, 0x11	; 17
    2d48:	07 c0       	rjmp	.+14     	; 0x2d58 <__udivmodhi4_ep>

00002d4a <__udivmodhi4_loop>:
    2d4a:	aa 1f       	adc	r26, r26
    2d4c:	bb 1f       	adc	r27, r27
    2d4e:	a6 17       	cp	r26, r22
    2d50:	b7 07       	cpc	r27, r23
    2d52:	10 f0       	brcs	.+4      	; 0x2d58 <__udivmodhi4_ep>
    2d54:	a6 1b       	sub	r26, r22
    2d56:	b7 0b       	sbc	r27, r23

00002d58 <__udivmodhi4_ep>:
    2d58:	88 1f       	adc	r24, r24
    2d5a:	99 1f       	adc	r25, r25
    2d5c:	5a 95       	dec	r21
    2d5e:	a9 f7       	brne	.-22     	; 0x2d4a <__udivmodhi4_loop>
    2d60:	80 95       	com	r24
    2d62:	90 95       	com	r25
    2d64:	bc 01       	movw	r22, r24
    2d66:	cd 01       	movw	r24, r26
    2d68:	08 95       	ret

00002d6a <do_rand>:
    2d6a:	8f 92       	push	r8
    2d6c:	9f 92       	push	r9
    2d6e:	af 92       	push	r10
    2d70:	bf 92       	push	r11
    2d72:	cf 92       	push	r12
    2d74:	df 92       	push	r13
    2d76:	ef 92       	push	r14
    2d78:	ff 92       	push	r15
    2d7a:	cf 93       	push	r28
    2d7c:	df 93       	push	r29
    2d7e:	ec 01       	movw	r28, r24
    2d80:	68 81       	ld	r22, Y
    2d82:	79 81       	ldd	r23, Y+1	; 0x01
    2d84:	8a 81       	ldd	r24, Y+2	; 0x02
    2d86:	9b 81       	ldd	r25, Y+3	; 0x03
    2d88:	61 15       	cp	r22, r1
    2d8a:	71 05       	cpc	r23, r1
    2d8c:	81 05       	cpc	r24, r1
    2d8e:	91 05       	cpc	r25, r1
    2d90:	21 f4       	brne	.+8      	; 0x2d9a <do_rand+0x30>
    2d92:	64 e2       	ldi	r22, 0x24	; 36
    2d94:	79 ed       	ldi	r23, 0xD9	; 217
    2d96:	8b e5       	ldi	r24, 0x5B	; 91
    2d98:	97 e0       	ldi	r25, 0x07	; 7
    2d9a:	2d e1       	ldi	r18, 0x1D	; 29
    2d9c:	33 ef       	ldi	r19, 0xF3	; 243
    2d9e:	41 e0       	ldi	r20, 0x01	; 1
    2da0:	50 e0       	ldi	r21, 0x00	; 0
    2da2:	4e d0       	rcall	.+156    	; 0x2e40 <__divmodsi4>
    2da4:	49 01       	movw	r8, r18
    2da6:	5a 01       	movw	r10, r20
    2da8:	9b 01       	movw	r18, r22
    2daa:	ac 01       	movw	r20, r24
    2dac:	a7 ea       	ldi	r26, 0xA7	; 167
    2dae:	b1 e4       	ldi	r27, 0x41	; 65
    2db0:	63 d0       	rcall	.+198    	; 0x2e78 <__muluhisi3>
    2db2:	6b 01       	movw	r12, r22
    2db4:	7c 01       	movw	r14, r24
    2db6:	ac ee       	ldi	r26, 0xEC	; 236
    2db8:	b4 ef       	ldi	r27, 0xF4	; 244
    2dba:	a5 01       	movw	r20, r10
    2dbc:	94 01       	movw	r18, r8
    2dbe:	68 d0       	rcall	.+208    	; 0x2e90 <__mulohisi3>
    2dc0:	c6 0e       	add	r12, r22
    2dc2:	d7 1e       	adc	r13, r23
    2dc4:	e8 1e       	adc	r14, r24
    2dc6:	f9 1e       	adc	r15, r25
    2dc8:	f7 fe       	sbrs	r15, 7
    2dca:	06 c0       	rjmp	.+12     	; 0x2dd8 <do_rand+0x6e>
    2dcc:	81 e0       	ldi	r24, 0x01	; 1
    2dce:	c8 1a       	sub	r12, r24
    2dd0:	d1 08       	sbc	r13, r1
    2dd2:	e1 08       	sbc	r14, r1
    2dd4:	80 e8       	ldi	r24, 0x80	; 128
    2dd6:	f8 0a       	sbc	r15, r24
    2dd8:	c8 82       	st	Y, r12
    2dda:	d9 82       	std	Y+1, r13	; 0x01
    2ddc:	ea 82       	std	Y+2, r14	; 0x02
    2dde:	fb 82       	std	Y+3, r15	; 0x03
    2de0:	c6 01       	movw	r24, r12
    2de2:	9f 77       	andi	r25, 0x7F	; 127
    2de4:	df 91       	pop	r29
    2de6:	cf 91       	pop	r28
    2de8:	ff 90       	pop	r15
    2dea:	ef 90       	pop	r14
    2dec:	df 90       	pop	r13
    2dee:	cf 90       	pop	r12
    2df0:	bf 90       	pop	r11
    2df2:	af 90       	pop	r10
    2df4:	9f 90       	pop	r9
    2df6:	8f 90       	pop	r8
    2df8:	08 95       	ret

00002dfa <rand_r>:
    2dfa:	b7 cf       	rjmp	.-146    	; 0x2d6a <do_rand>

00002dfc <rand>:
    2dfc:	80 e0       	ldi	r24, 0x00	; 0
    2dfe:	90 e2       	ldi	r25, 0x20	; 32
    2e00:	b4 cf       	rjmp	.-152    	; 0x2d6a <do_rand>

00002e02 <srand>:
    2e02:	a0 e0       	ldi	r26, 0x00	; 0
    2e04:	b0 e0       	ldi	r27, 0x00	; 0
    2e06:	80 93 00 20 	sts	0x2000, r24
    2e0a:	90 93 01 20 	sts	0x2001, r25
    2e0e:	a0 93 02 20 	sts	0x2002, r26
    2e12:	b0 93 03 20 	sts	0x2003, r27
    2e16:	08 95       	ret

00002e18 <__eerd_block_x128a3u>:
    2e18:	e0 ec       	ldi	r30, 0xC0	; 192
    2e1a:	f1 e0       	ldi	r31, 0x01	; 1
    2e1c:	a7 85       	ldd	r26, Z+15	; 0x0f
    2e1e:	a7 fd       	sbrc	r26, 7
    2e20:	fd cf       	rjmp	.-6      	; 0x2e1c <__eerd_block_x128a3u+0x4>
    2e22:	a4 85       	ldd	r26, Z+12	; 0x0c
    2e24:	a8 60       	ori	r26, 0x08	; 8
    2e26:	a4 87       	std	Z+12, r26	; 0x0c
    2e28:	60 50       	subi	r22, 0x00	; 0
    2e2a:	70 4f       	sbci	r23, 0xF0	; 240
    2e2c:	00 c0       	rjmp	.+0      	; 0x2e2e <memcpy>

00002e2e <memcpy>:
    2e2e:	fb 01       	movw	r30, r22
    2e30:	dc 01       	movw	r26, r24
    2e32:	02 c0       	rjmp	.+4      	; 0x2e38 <memcpy+0xa>
    2e34:	01 90       	ld	r0, Z+
    2e36:	0d 92       	st	X+, r0
    2e38:	41 50       	subi	r20, 0x01	; 1
    2e3a:	50 40       	sbci	r21, 0x00	; 0
    2e3c:	d8 f7       	brcc	.-10     	; 0x2e34 <memcpy+0x6>
    2e3e:	08 95       	ret

00002e40 <__divmodsi4>:
    2e40:	05 2e       	mov	r0, r21
    2e42:	97 fb       	bst	r25, 7
    2e44:	16 f4       	brtc	.+4      	; 0x2e4a <__divmodsi4+0xa>
    2e46:	00 94       	com	r0
    2e48:	0f d0       	rcall	.+30     	; 0x2e68 <__negsi2>
    2e4a:	57 fd       	sbrc	r21, 7
    2e4c:	05 d0       	rcall	.+10     	; 0x2e58 <__divmodsi4_neg2>
    2e4e:	3e df       	rcall	.-388    	; 0x2ccc <__udivmodsi4>
    2e50:	07 fc       	sbrc	r0, 7
    2e52:	02 d0       	rcall	.+4      	; 0x2e58 <__divmodsi4_neg2>
    2e54:	46 f4       	brtc	.+16     	; 0x2e66 <__divmodsi4_exit>
    2e56:	08 c0       	rjmp	.+16     	; 0x2e68 <__negsi2>

00002e58 <__divmodsi4_neg2>:
    2e58:	50 95       	com	r21
    2e5a:	40 95       	com	r20
    2e5c:	30 95       	com	r19
    2e5e:	21 95       	neg	r18
    2e60:	3f 4f       	sbci	r19, 0xFF	; 255
    2e62:	4f 4f       	sbci	r20, 0xFF	; 255
    2e64:	5f 4f       	sbci	r21, 0xFF	; 255

00002e66 <__divmodsi4_exit>:
    2e66:	08 95       	ret

00002e68 <__negsi2>:
    2e68:	90 95       	com	r25
    2e6a:	80 95       	com	r24
    2e6c:	70 95       	com	r23
    2e6e:	61 95       	neg	r22
    2e70:	7f 4f       	sbci	r23, 0xFF	; 255
    2e72:	8f 4f       	sbci	r24, 0xFF	; 255
    2e74:	9f 4f       	sbci	r25, 0xFF	; 255
    2e76:	08 95       	ret

00002e78 <__muluhisi3>:
    2e78:	51 df       	rcall	.-350    	; 0x2d1c <__umulhisi3>
    2e7a:	a5 9f       	mul	r26, r21
    2e7c:	90 0d       	add	r25, r0
    2e7e:	b4 9f       	mul	r27, r20
    2e80:	90 0d       	add	r25, r0
    2e82:	a4 9f       	mul	r26, r20
    2e84:	80 0d       	add	r24, r0
    2e86:	91 1d       	adc	r25, r1
    2e88:	11 24       	eor	r1, r1
    2e8a:	08 95       	ret

00002e8c <__mulshisi3>:
    2e8c:	b7 ff       	sbrs	r27, 7
    2e8e:	f4 cf       	rjmp	.-24     	; 0x2e78 <__muluhisi3>

00002e90 <__mulohisi3>:
    2e90:	f3 df       	rcall	.-26     	; 0x2e78 <__muluhisi3>
    2e92:	82 1b       	sub	r24, r18
    2e94:	93 0b       	sbc	r25, r19
    2e96:	08 95       	ret

00002e98 <__do_global_dtors>:
    2e98:	13 e0       	ldi	r17, 0x03	; 3
    2e9a:	c2 e1       	ldi	r28, 0x12	; 18
    2e9c:	d3 e0       	ldi	r29, 0x03	; 3
    2e9e:	00 e0       	ldi	r16, 0x00	; 0
    2ea0:	05 c0       	rjmp	.+10     	; 0x2eac <__do_global_dtors+0x14>
    2ea2:	22 97       	sbiw	r28, 0x02	; 2
    2ea4:	01 09       	sbc	r16, r1
    2ea6:	fe 01       	movw	r30, r28
    2ea8:	0b bf       	out	0x3b, r16	; 59
    2eaa:	47 df       	rcall	.-370    	; 0x2d3a <__tablejump_elpm__>
    2eac:	c4 31       	cpi	r28, 0x14	; 20
    2eae:	d1 07       	cpc	r29, r17
    2eb0:	80 e0       	ldi	r24, 0x00	; 0
    2eb2:	08 07       	cpc	r16, r24
    2eb4:	b1 f7       	brne	.-20     	; 0x2ea2 <__do_global_dtors+0xa>
    2eb6:	f8 94       	cli

00002eb8 <__stop_program>:
    2eb8:	ff cf       	rjmp	.-2      	; 0x2eb8 <__stop_program>
